ARM GAS  C:\Users\Helon\AppData\Local\Temp\ccVeYEL4.s 			page 1


   1              		.cpu cortex-m0
   2              		.fpu softvfp
   3              		.eabi_attribute 20, 1
   4              		.eabi_attribute 21, 1
   5              		.eabi_attribute 23, 3
   6              		.eabi_attribute 24, 1
   7              		.eabi_attribute 25, 1
   8              		.eabi_attribute 26, 1
   9              		.eabi_attribute 30, 1
  10              		.eabi_attribute 34, 0
  11              		.eabi_attribute 18, 4
  12              		.code	16
  13              		.file	"BLEApplication.c"
  14              		.text
  15              	.Ltext0:
  16              		.cfi_sections	.debug_frame
  17              		.section	.text.StackEventHandler,"ax",%progbits
  18              		.align	2
  19              		.global	StackEventHandler
  20              		.code	16
  21              		.thumb_func
  22              		.type	StackEventHandler, %function
  23              	StackEventHandler:
  24              	.LFB37:
  25              		.file 1 ".\\BLEApplication.c"
   1:.\BLEApplication.c **** /* ========================================
   2:.\BLEApplication.c ****  *
   3:.\BLEApplication.c ****  * Copyright YOUR COMPANY, THE YEAR
   4:.\BLEApplication.c ****  * All Rights Reserved
   5:.\BLEApplication.c ****  * UNPUBLISHED, LICENSED SOFTWARE.
   6:.\BLEApplication.c ****  *
   7:.\BLEApplication.c ****  * CONFIDENTIAL AND PROPRIETARY INFORMATION
   8:.\BLEApplication.c ****  * WHICH IS THE PROPERTY OF your company.
   9:.\BLEApplication.c ****  *
  10:.\BLEApplication.c ****  * ========================================
  11:.\BLEApplication.c **** */
  12:.\BLEApplication.c **** #include<project.h>
  13:.\BLEApplication.c **** #include "BLEApplication.h"
  14:.\BLEApplication.c **** #include<stdio.h>
  15:.\BLEApplication.c **** #include "BLEClient.h"
  16:.\BLEApplication.c **** #include <malloc.h>
  17:.\BLEApplication.c **** #include "WriteUserSFlash.h"
  18:.\BLEApplication.c **** /***************************************
  19:.\BLEApplication.c **** * Â§ñÈÉ®ÂÖ®Â±ÄÂèòÈáèÂ£∞Êòé
  20:.\BLEApplication.c **** ***************************************/
  21:.\BLEApplication.c **** extern uint8_t StartScan;
  22:.\BLEApplication.c **** extern uint8_t DeviceCount;
  23:.\BLEApplication.c **** extern CYBLE_DEVICE_INFO DeviceInfo[DeviceListCount];
  24:.\BLEApplication.c **** //extern uint8_t DeviceList[DeviceListCount];
  25:.\BLEApplication.c **** /***************************************
  26:.\BLEApplication.c **** * ÂÖ®Â±ÄÂèòÈáè
  27:.\BLEApplication.c **** ***************************************/
  28:.\BLEApplication.c **** UART_UART_INIT_STRUCT configUart;
  29:.\BLEApplication.c **** uint8_t LowPower_EN=TURE;
  30:.\BLEApplication.c **** uint8_t RX_BUFFER[BUFFER_LENGHTH]={0};
  31:.\BLEApplication.c **** uint8_t Buffer_Length=0;
  32:.\BLEApplication.c **** uint8_t rx_isover=FALSE;
ARM GAS  C:\Users\Helon\AppData\Local\Temp\ccVeYEL4.s 			page 2


  33:.\BLEApplication.c **** uint8_t RxFlag=OVER;
  34:.\BLEApplication.c **** //uint8_t SleepMode=TURE;
  35:.\BLEApplication.c **** CYBLE_CONN_OR_DISCONN_INFO Conn_Or_Disconn_Info;
  36:.\BLEApplication.c **** uint8_t Conn_or_Disconn_Idx=0;
  37:.\BLEApplication.c **** //uint8 bufferRx[UART_RX_BUFFER + 1u];     /* RX software buffer requires one extra entry for corre
  38:.\BLEApplication.c **** //uint8 bufferTx[UART_TX_BUFFER];           /* TX software buffer */ 
  39:.\BLEApplication.c **** uint8_t MTU_REQ_FLAG=TURE;
  40:.\BLEApplication.c **** uint8_t TroughtTest_Flag=FALSE;
  41:.\BLEApplication.c **** uint8_t charNotificationEnabled = FALSE;
  42:.\BLEApplication.c **** uint32 totalByteCounter = 0;
  43:.\BLEApplication.c **** uint8_t Role=Peripheral;//ÈªòËÆ§ÊòØPeripheral
  44:.\BLEApplication.c **** uint8 buffer[20];
  45:.\BLEApplication.c **** uint16 negotiatedMtu = DEFAULT_MTU_SIZE;
  46:.\BLEApplication.c **** uint8_t CommandMode=AT_COMMAND_MODE;
  47:.\BLEApplication.c **** uint32 testCount=0;
  48:.\BLEApplication.c **** uint8_t iocapability=CYBLE_GAP_IOCAP_DISPLAY_ONLY;
  49:.\BLEApplication.c **** CYBLE_GAP_CONN_PARAM_UPDATED_IN_CONTROLLER_T ConnParam;
  50:.\BLEApplication.c **** uint8_t KEYBOARD=FALSE;
  51:.\BLEApplication.c **** uint8_t AUTHFLAG=FALSE;
  52:.\BLEApplication.c **** uint8_t SleepMode=TURE;
  53:.\BLEApplication.c **** uint8_t Bond=FALSE;
  54:.\BLEApplication.c **** /* All zeros passed as  argument passed to CyBle_GapRemoveDeviceFromWhiteList for 
  55:.\BLEApplication.c **** removing all the bonding data stored */
  56:.\BLEApplication.c **** CYBLE_GAP_BD_ADDR_T clearAllDevices = {{0,0,0,0,0,0},0};
  57:.\BLEApplication.c **** //CYBLE_GAPP_DISC_MODE_INFO_T updateadvparam;
  58:.\BLEApplication.c **** //uint8_t ExitThrought[]={
  59:.\BLEApplication.c **** //    0x11,0x24,0xFB,0x1E,0x1F,0x24,0x19,0x16,0x29};
  60:.\BLEApplication.c **** //CYBLE_CONN_HANDLE_T	connHandle=
  61:.\BLEApplication.c **** //{
  62:.\BLEApplication.c **** //    CYBLE_TROUGHPUT_SERVICE_CUSTOM_CHARACTERISTIC_CLIENT_CHARACTERISTIC_CONFIGURATION_DESC_HANDLE
  63:.\BLEApplication.c **** //    0x00
  64:.\BLEApplication.c **** //};
  65:.\BLEApplication.c **** CYBLE_GAP_BD_ADDR_T DeviceAddr;//Â≠òÊîæÊú¨Êú∫ÁöÑMACÂú∞ÂùÄ,‰∏çËÉΩÂÅö‰∏∫Â±ÄÈÉ®ÂèòÈáèÂê¶ÂàôËé∑ÂèñÁöÑÂú
  66:.\BLEApplication.c **** uint8_t _10sIsOver=FALSE;
  67:.\BLEApplication.c **** uint8 cccdNotifEnabledValue[] = {0x01, 0x00};
  68:.\BLEApplication.c **** CYBLE_GATT_VALUE_T cccdNotifFlagSetStruct =
  69:.\BLEApplication.c **** {
  70:.\BLEApplication.c ****     cccdNotifEnabledValue,
  71:.\BLEApplication.c ****     2,
  72:.\BLEApplication.c ****     0
  73:.\BLEApplication.c **** };
  74:.\BLEApplication.c **** //    Êõ¥Êñ∞ËøûÊé•Èó¥ÈöîÂèÇÊï∞ÔºåÊèêÈ´òÈÄè‰º†ÈÄüÁéáÔºå‰ΩÜ‰ºöÂ¢ûÂä†ÂäüËÄó
  75:.\BLEApplication.c **** CYBLE_GAP_CONN_UPDATE_PARAM_T connParam={
  76:.\BLEApplication.c ****     0x10,
  77:.\BLEApplication.c ****     0x10,
  78:.\BLEApplication.c ****     0,
  79:.\BLEApplication.c ****     1000
  80:.\BLEApplication.c **** };
  81:.\BLEApplication.c **** CYBLE_GATTC_WRITE_REQ_T writeRequestData;
  82:.\BLEApplication.c **** CYBLE_GATTC_READ_REQ_T readRequestData=CYBLE_TROUGHPUT_SERVICE_CUSTOM_CHARACTERISTIC_CLIENT_CHARACT
  83:.\BLEApplication.c **** //ATÂëΩ‰ª§ÂàóË°®
  84:.\BLEApplication.c **** char * StringArry[]={
  85:.\BLEApplication.c ****                      AT_RESET,AT_REFAC,AT_VERSION,AT_BAUD,AT_LADDR,AT_NAME,
  86:.\BLEApplication.c ****                      AT_CPIN,AT_TXP,AT_ADVD,AT_ADVI,AT_CONNI,AT_ROLE,AT_SCAN,
  87:.\BLEApplication.c ****                      AT_CONNT,AT_DISCONN,AT_LOGIN,AT_TX,AT_RSSI,AT_DISALLCHAR,
  88:.\BLEApplication.c ****                      AT,AT_SPEED,AT_NOTIFY,AT_STAUS,AT_ADVS,AT_AUTH,AT_IOCAP,
  89:.\BLEApplication.c ****                     AT_SLEEP,AT_BOND
ARM GAS  C:\Users\Helon\AppData\Local\Temp\ccVeYEL4.s 			page 3


  90:.\BLEApplication.c ****                     };
  91:.\BLEApplication.c **** uint8_t STOP_SCAN_FLAG=FALSE;
  92:.\BLEApplication.c **** uint8_t Baud_rate_idx='7';//ÈªòËÆ§ÊòØ115200
  93:.\BLEApplication.c **** /******************************************************************************
  94:.\BLEApplication.c **** * Function Name: StackEventHandler
  95:.\BLEApplication.c **** ***************************************************************************//**
  96:.\BLEApplication.c **** * 
  97:.\BLEApplication.c **** *  Â§ÑÁêÜËìùÁâôÂçèËÆÆÊ†à‰∫ã‰ª∂
  98:.\BLEApplication.c **** * 
  99:.\BLEApplication.c **** * \return
 100:.\BLEApplication.c **** *  None
 101:.\BLEApplication.c **** * 
 102:.\BLEApplication.c **** ******************************************************************************/
 103:.\BLEApplication.c **** void StackEventHandler(uint32 eventCode, void *eventParam)
 104:.\BLEApplication.c **** {
  26              		.loc 1 104 0
  27              		.cfi_startproc
  28              	.LVL0:
  29 0000 30B5     		push	{r4, r5, lr}
  30              		.cfi_def_cfa_offset 12
  31              		.cfi_offset 4, -12
  32              		.cfi_offset 5, -8
  33              		.cfi_offset 14, -4
  34 0002 8BB0     		sub	sp, sp, #44
  35              		.cfi_def_cfa_offset 56
  36 0004 0C1C     		mov	r4, r1
  37              	.LVL1:
 105:.\BLEApplication.c ****     CYBLE_GAPC_ADV_REPORT_T	Scan_Result;
 106:.\BLEApplication.c ****     CYBLE_API_RESULT_T API_RESULT=0;
 107:.\BLEApplication.c ****     CYBLE_GATTC_FIND_INFO_RSP_PARAM_T DisAllCharResult;  
 108:.\BLEApplication.c ****     uint8_t i=0;
 109:.\BLEApplication.c ****     CYBLE_GATTC_HANDLE_VALUE_NTF_PARAM_T * handleValueNotification;
 110:.\BLEApplication.c ****     CYBLE_GATTS_WRITE_REQ_PARAM_T writeParam;  
 111:.\BLEApplication.c **** //    CYBLE_GATTC_READ_BY_TYPE_RSP_PARAM_T DisAllCharResult;
 112:.\BLEApplication.c **** //    CYBLE_GATT_HANDLE_VALUE_PAIR_T handleValuePair;
 113:.\BLEApplication.c **** //    uint32 PassKey=0;
 114:.\BLEApplication.c **** //    CYBLE_GATTC_READ_RSP_PARAM_T readParam;
 115:.\BLEApplication.c ****     switch(eventCode)
  38              		.loc 1 115 0
  39 0006 2828     		cmp	r0, #40
  40 0008 59D0     		beq	.L3
  41 000a 07D8     		bhi	.L4
  42 000c 2028     		cmp	r0, #32
  43 000e 15D0     		beq	.L5
  44 0010 2728     		cmp	r0, #39
  45 0012 35D0     		beq	.L6
  46 0014 0128     		cmp	r0, #1
  47 0016 00D0     		beq	.LCB25
  48 0018 B8E0     		b	.L1	@long jump
  49              	.LCB25:
  50 001a 0BE0     		b	.L7
  51              	.L4:
  52 001c 4C28     		cmp	r0, #76
  53 001e 7CD0     		beq	.L8
  54 0020 02D8     		bhi	.L9
  55 0022 2B28     		cmp	r0, #43
  56 0024 13D0     		beq	.L10
ARM GAS  C:\Users\Helon\AppData\Local\Temp\ccVeYEL4.s 			page 4


  57 0026 B1E0     		b	.L1
  58              	.L9:
  59 0028 4E28     		cmp	r0, #78
  60 002a 54D0     		beq	.L11
  61 002c 5228     		cmp	r0, #82
  62 002e 00D1     		bne	.LCB43
  63 0030 9CE0     		b	.L12	@long jump
  64              	.LCB43:
  65 0032 ABE0     		b	.L1
  66              	.L7:
 116:.\BLEApplication.c ****     {
 117:.\BLEApplication.c ****         case CYBLE_EVT_STACK_ON:
 118:.\BLEApplication.c **** //            printf("BLE is Ready\r\n");
 119:.\BLEApplication.c **** //            while((UART_SpiUartGetTxBufferSize() + UART_GET_TX_FIFO_SR_VALID) != 0);//Á≠âÂæÖ‰∏≤Âè
 120:.\BLEApplication.c ****             #ifdef Client
 121:.\BLEApplication.c ****                 CyBle_GapcStartScan(CYBLE_SCANNING_FAST);
  67              		.loc 1 121 0
  68 0034 0020     		mov	r0, #0
  69              	.LVL2:
  70 0036 FFF7FEFF 		bl	CyBle_GapcStartScan
  71              	.LVL3:
 122:.\BLEApplication.c ****             #endif
 123:.\BLEApplication.c ****             
 124:.\BLEApplication.c ****             #ifdef Server
 125:.\BLEApplication.c ****                CyBle_GappStartAdvertisement(CYBLE_ADVERTISING_FAST);               
 126:.\BLEApplication.c ****             #endif
 127:.\BLEApplication.c **** //            StartScan=TRUE;     
 128:.\BLEApplication.c **** //            CyBle_GappStartAdvertisement(CYBLE_ADVERTISING_FAST);
 129:.\BLEApplication.c ****         break;
  72              		.loc 1 129 0
  73 003a A7E0     		b	.L1
  74              	.LVL4:
  75              	.L5:
 130:.\BLEApplication.c ****         case CYBLE_EVT_GAPC_SCAN_PROGRESS_RESULT:
 131:.\BLEApplication.c ****             Scan_Result=*(CYBLE_GAPC_ADV_REPORT_T *)eventParam;
  76              		.loc 1 131 0
  77 003c 05A8     		add	r0, sp, #20
  78              	.LVL5:
  79 003e 031C     		mov	r3, r0
  80 0040 26CC     		ldmia	r4!, {r1, r2, r5}
  81 0042 26C3     		stmia	r3!, {r1, r2, r5}
  82              	.LVL6:
  83 0044 06CC     		ldmia	r4!, {r1, r2}
  84 0046 06C3     		stmia	r3!, {r1, r2}
  85              	.LVL7:
 132:.\BLEApplication.c ****             HandleScanDevices(&Scan_Result);                        
  86              		.loc 1 132 0
  87 0048 FFF7FEFF 		bl	HandleScanDevices
  88              	.LVL8:
 133:.\BLEApplication.c **** //            CyBle_GapcStopScan();
 134:.\BLEApplication.c ****         break;
  89              		.loc 1 134 0
  90 004c 9EE0     		b	.L1
  91              	.LVL9:
  92              	.L10:
 135:.\BLEApplication.c ****         case CYBLE_EVT_GAPC_SCAN_START_STOP:
 136:.\BLEApplication.c ****             if(STOP_SCAN_FLAG)
ARM GAS  C:\Users\Helon\AppData\Local\Temp\ccVeYEL4.s 			page 5


  93              		.loc 1 136 0
  94 004e 504B     		ldr	r3, .L27
  95 0050 1B78     		ldrb	r3, [r3]
  96 0052 002B     		cmp	r3, #0
  97 0054 00D1     		bne	.LCB78
  98 0056 99E0     		b	.L1	@long jump
  99              	.LCB78:
 137:.\BLEApplication.c ****             {
 138:.\BLEApplication.c ****                 STOP_SCAN_FLAG=FALSE;     
 100              		.loc 1 138 0
 101 0058 0022     		mov	r2, #0
 102 005a 4D4B     		ldr	r3, .L27
 103 005c 1A70     		strb	r2, [r3]
 139:.\BLEApplication.c ****                 
 140:.\BLEApplication.c **** //                CyBle_GapcStartScan(CYBLE_SCANNING_FAST);
 141:.\BLEApplication.c **** //                printf("+SCAN_STOP\r\n");
 142:.\BLEApplication.c **** //                printf("%d\r\n",CyBle_GetState());
 143:.\BLEApplication.c ****                 API_RESULT=CyBle_GapcConnectDevice(&DeviceInfo[DeviceCount-1].DeviceList);
 104              		.loc 1 143 0
 105 005e 4D4B     		ldr	r3, .L27+4
 106 0060 1878     		ldrb	r0, [r3]
 107              	.LVL10:
 108 0062 0138     		sub	r0, r0, #1
 109 0064 0301     		lsl	r3, r0, #4
 110 0066 181A     		sub	r0, r3, r0
 111 0068 4000     		lsl	r0, r0, #1
 112 006a 4B4B     		ldr	r3, .L27+8
 113 006c C018     		add	r0, r0, r3
 114 006e FFF7FEFF 		bl	CyBle_GapcConnectDevice
 115              	.LVL11:
 144:.\BLEApplication.c ****                 if(CYBLE_ERROR_OK==API_RESULT)//ÊâìÂºÄÈÄè‰º†ÈÄöÈÅì
 116              		.loc 1 144 0
 117 0072 0028     		cmp	r0, #0
 118 0074 00D0     		beq	.LCB96
 119 0076 89E0     		b	.L1	@long jump
 120              	.LCB96:
 145:.\BLEApplication.c ****                 {
 146:.\BLEApplication.c ****                     printf("Connect Success\r\n");                    
 121              		.loc 1 146 0
 122 0078 4848     		ldr	r0, .L27+12
 123              	.LVL12:
 124 007a FFF7FEFF 		bl	puts
 125              	.LVL13:
 126 007e 85E0     		b	.L1
 127              	.LVL14:
 128              	.L6:
 147:.\BLEApplication.c ****                 }
 148:.\BLEApplication.c ****             }
 149:.\BLEApplication.c ****             
 150:.\BLEApplication.c ****         break;
 151:.\BLEApplication.c ****         //ÂΩìClientÊâ´ÊèèÂà∞ServerÁöÑDB‰πãÂêéÊâç‰ºöËß¶ÂèëËØ•‰∫ã‰ª∂ÔºåÂâçÊèêÊòØclientÂíåserverËøûÊé•
 152:.\BLEApplication.c ****         case CYBLE_EVT_GATTC_DISCOVERY_COMPLETE:
 153:.\BLEApplication.c ****             
 154:.\BLEApplication.c ****         break;        
 155:.\BLEApplication.c ****         case CYBLE_EVT_TIMEOUT:                         
 156:.\BLEApplication.c **** //            if(*(uint8_t*)eventParam==CYBLE_GAP_SCAN_TO)
 157:.\BLEApplication.c **** //            {   
ARM GAS  C:\Users\Helon\AppData\Local\Temp\ccVeYEL4.s 			page 6


 158:.\BLEApplication.c **** //                CyBle_GapcStopScan();
 159:.\BLEApplication.c **** //                printf("+SCAN_CMP\r\n");                    
 160:.\BLEApplication.c **** //            }
 161:.\BLEApplication.c ****             //ÂπøÊí≠Ë∂ÖÊó∂
 162:.\BLEApplication.c **** //            if(*(uint8_t*)eventParam==CYBLE_GAP_ADV_MODE_TO)
 163:.\BLEApplication.c **** //            {
 164:.\BLEApplication.c **** ////               printf("+ADV_TO\r\n");  
 165:.\BLEApplication.c **** //                CyBle_GappStartAdvertisement(CYBLE_ADVERTISING_FAST);
 166:.\BLEApplication.c **** //            }
 167:.\BLEApplication.c ****         break;
 168:.\BLEApplication.c ****         case CYBLE_EVT_GAPP_ADVERTISEMENT_START_STOP:
 169:.\BLEApplication.c **** //            if(CYBLE_STATE_ADVERTISING!=CyBle_GetState())
 170:.\BLEApplication.c **** //            {
 171:.\BLEApplication.c **** //                CyBle_GappStartAdvertisement(CYBLE_ADVERTISING_FAST);
 172:.\BLEApplication.c **** //            }
 173:.\BLEApplication.c ****         break;
 174:.\BLEApplication.c ****         case CYBLE_EVT_GAP_DEVICE_CONNECTED: 
 175:.\BLEApplication.c ****             #ifdef Client
 176:.\BLEApplication.c ****                 writeRequestData.value.val[0]=0x01;
 129              		.loc 1 176 0
 130 0080 4749     		ldr	r1, .L27+16
 131              	.LVL15:
 132 0082 0123     		mov	r3, #1
 133 0084 0A68     		ldr	r2, [r1]
 134 0086 1370     		strb	r3, [r2]
 177:.\BLEApplication.c ****                 writeRequestData.attrHandle=CYBLE_TROUGHPUT_SERVICE_CUSTOM_CHARACTERISTIC_CLIENT_CH
 135              		.loc 1 177 0
 136 0088 0E33     		add	r3, r3, #14
 137 008a 0B81     		strh	r3, [r1, #8]
 178:.\BLEApplication.c ****                 API_RESULT=CyBle_GattcWriteWithoutResponse(cyBle_connHandle, &writeRequestData);
 138              		.loc 1 178 0
 139 008c 454A     		ldr	r2, .L27+20
 140 008e 1378     		ldrb	r3, [r2]
 141 0090 5078     		ldrb	r0, [r2, #1]
 142              	.LVL16:
 143 0092 0002     		lsl	r0, r0, #8
 144 0094 1843     		orr	r0, r3
 145 0096 FFF7FEFF 		bl	CyBle_GattcWriteWithoutResponse
 146              	.LVL17:
 179:.\BLEApplication.c ****                 if(CYBLE_ERROR_OK==API_RESULT)//ÊâìÂºÄÈÄè‰º†ÈÄöÈÅì
 147              		.loc 1 179 0
 148 009a 0028     		cmp	r0, #0
 149 009c 76D1     		bne	.L1
 180:.\BLEApplication.c ****                 {
 181:.\BLEApplication.c ****                     printf("Open Throughput\r\n");                
 150              		.loc 1 181 0
 151 009e 4248     		ldr	r0, .L27+24
 152              	.LVL18:
 153 00a0 FFF7FEFF 		bl	puts
 154              	.LVL19:
 155              	.L14:
 182:.\BLEApplication.c ****                     while((UART_SpiUartGetTxBufferSize() + UART_GET_TX_FIFO_SR_VALID) != 0);//Á≠âÂæ
 156              		.loc 1 182 0 discriminator 5
 157 00a4 FFF7FEFF 		bl	UART_SpiUartGetTxBufferSize
 158              	.LVL20:
 159 00a8 404B     		ldr	r3, .L27+28
 160 00aa 1B68     		ldr	r3, [r3]
ARM GAS  C:\Users\Helon\AppData\Local\Temp\ccVeYEL4.s 			page 7


 161 00ac 8022     		mov	r2, #128
 162 00ae 1202     		lsl	r2, r2, #8
 163 00b0 1340     		and	r3, r2
 164 00b2 00D0     		beq	.L13
 165              		.loc 1 182 0 is_stmt 0
 166 00b4 0123     		mov	r3, #1
 167              	.L13:
 168              		.loc 1 182 0 discriminator 4
 169 00b6 C318     		add	r3, r0, r3
 170 00b8 002B     		cmp	r3, #0
 171 00ba F3D1     		bne	.L14
 172 00bc 66E0     		b	.L1
 173              	.LVL21:
 174              	.L3:
 183:.\BLEApplication.c ****                 }
 184:.\BLEApplication.c ****             #endif            
 185:.\BLEApplication.c ****             #ifdef Server
 186:.\BLEApplication.c ****                 LowPower_EN=FALSE;
 187:.\BLEApplication.c ****             #endif
 188:.\BLEApplication.c ****             
 189:.\BLEApplication.c ****             
 190:.\BLEApplication.c **** //            Ëé∑ÂèñËøûÊé•ÂèÇÊï∞‰ø°ÊÅØ
 191:.\BLEApplication.c **** //            ConnParam=*(CYBLE_GAP_CONN_PARAM_UPDATED_IN_CONTROLLER_T *)eventParam;            
 192:.\BLEApplication.c **** //            if(Role==Peripheral)
 193:.\BLEApplication.c **** //            {
 194:.\BLEApplication.c **** //                printf("+CONN_EVT=OK\r\n");
 195:.\BLEApplication.c **** ////                handleValuePair.value.val[0]=0x01;
 196:.\BLEApplication.c **** ////                handleValuePair.value.val[1]=0x00;
 197:.\BLEApplication.c **** ////                handleValuePair.value.len=2;
 198:.\BLEApplication.c **** ////                handleValuePair.attrHandle=CYBLE_TROUGHPUT_SERVICE_CUSTOM_CHARACTERISTIC_CLIENT
 199:.\BLEApplication.c **** ////                 printf("+WRITE=%d\r\n",CyBle_GattsWriteAttributeValue(&handleValuePair,0,&cyBl
 200:.\BLEApplication.c **** ////                CommandMode=THROUGHT_MODE;
 201:.\BLEApplication.c **** //                CyBle_L2capLeConnectionParamUpdateRequest(cyBle_connHandle.bdHandle,&connParam);
 202:.\BLEApplication.c **** //                #ifdef RELEASE
 203:.\BLEApplication.c **** //                CyBle_GapAuthReq(cyBle_connHandle.bdHandle,&cyBle_authInfo);
 204:.\BLEApplication.c **** //                #endif
 205:.\BLEApplication.c **** //            }
 206:.\BLEApplication.c **** //            else
 207:.\BLEApplication.c **** //            {
 208:.\BLEApplication.c **** ////                CommandMode=THROUGHT_MODE;
 209:.\BLEApplication.c **** //                printf("+CONN_EVT=%d,OK\r\n",Conn_or_Disconn_Idx);   
 210:.\BLEApplication.c **** ////                ‰∏é‰ªéÊú∫ËøûÊé•ÊàêÂäüÂêéÔºå‰∏ªÊú∫ÂèëËµ∑ËøûÊé•Èó¥ÈöîÊõ¥Êñ∞ËØ∑Ê±Ç
 211:.\BLEApplication.c **** //                CyBle_GapcConnectionParamUpdateRequest(cyBle_connHandle.bdHandle,&connParam);
 212:.\BLEApplication.c **** //                /* Initiate an MTU exchange request CYBLE_GATT_MTU*/
 213:.\BLEApplication.c **** //                CyBle_GattcExchangeMtuReq(cyBle_connHandle,CYBLE_GATT_MTU);
 214:.\BLEApplication.c **** //            }
 215:.\BLEApplication.c **** //            //‰∏ªÊú∫ÂèëÈÄÅÁöÑMTU exchange request
 216:.\BLEApplication.c **** //            if(MTU_REQ_FLAG)
 217:.\BLEApplication.c **** //            {
 218:.\BLEApplication.c **** //                MTU_REQ_FLAG=FALSE;
 219:.\BLEApplication.c **** //                /* Initiate an MTU exchange request */
 220:.\BLEApplication.c **** //                CyBle_GattcExchangeMtuReq(cyBle_connHandle, CYBLE_GATT_MTU);
 221:.\BLEApplication.c **** //            }
 222:.\BLEApplication.c ****         break;
 223:.\BLEApplication.c ****         case CYBLE_EVT_GAP_CONNECTION_UPDATE_COMPLETE: 
 224:.\BLEApplication.c **** //            Ëé∑ÂèñËøûÊé•ÂèÇÊï∞‰ø°ÊÅØ
 225:.\BLEApplication.c **** //            ConnParam=*(CYBLE_GAP_CONN_PARAM_UPDATED_IN_CONTROLLER_T *)eventParam;
ARM GAS  C:\Users\Helon\AppData\Local\Temp\ccVeYEL4.s 			page 8


 226:.\BLEApplication.c **** //            printf("+UPDATECONN_EVT=OK\r\n");
 227:.\BLEApplication.c **** //            if(Role==Central)
 228:.\BLEApplication.c **** //                Timer_Enable();
 229:.\BLEApplication.c ****         break;
 230:.\BLEApplication.c **** //            ‰∏ªÊú∫Êé•Êî∂‰ªéÊú∫ÁöÑMTU‰∫§Êç¢ÂìçÂ∫î
 231:.\BLEApplication.c ****         case CYBLE_EVT_GATTC_XCHNG_MTU_RSP:            
 232:.\BLEApplication.c **** //            negotiatedMtu=((CYBLE_GATT_XCHG_MTU_PARAM_T *)eventParam)->mtu;
 233:.\BLEApplication.c **** //            printf("mtu is %d\r\n",negotiatedMtu);
 234:.\BLEApplication.c ****             /* Enable notifications on the characteristic to get data from the 
 235:.\BLEApplication.c ****              * Server.
 236:.\BLEApplication.c ****              */
 237:.\BLEApplication.c **** //            TroughtTest_Flag=TURE;  
 238:.\BLEApplication.c **** //            UART_UartPutString("Calculating throughput. Please wait...\n\r");
 239:.\BLEApplication.c **** //            Timer_Enable();
 240:.\BLEApplication.c **** //            printf("'MTU Exchange Response' received from server device\r\n");
 241:.\BLEApplication.c **** //            if(0x00==writeRequestData.value.val[0])
 242:.\BLEApplication.c **** //                writeRequestData.value.val[0]=0x01;
 243:.\BLEApplication.c **** //            writeRequestData.attrHandle=CYBLE_TROUGHPUT_SERVICE_SPEEDTEST_CHAR_HANDLE;
 244:.\BLEApplication.c **** //            CyBle_GattcWriteCharacteristicValue(cyBle_connHandle, &writeRequestData);   
 245:.\BLEApplication.c **** //            printf("Notify slave is %d",API_RESULT);
 246:.\BLEApplication.c **** //            while((UART_SpiUartGetTxBufferSize() + UART_GET_TX_FIFO_SR_VALID) != 0);//Á≠âÂæÖ‰∏≤Âè
 247:.\BLEApplication.c ****             break;
 248:.\BLEApplication.c ****         /* GATT MTU exchange request - Update the negotiated MTU value */
 249:.\BLEApplication.c **** //            ÂÅö‰∏∫‰ªéÊú∫Êó∂Êé•Êî∂‰∏ªÊú∫ÂèëÈÄÅËøáÊù•ÁöÑMTU‰∫§Êç¢ËØ∑Ê±Ç
 250:.\BLEApplication.c ****         case CYBLE_EVT_GATTS_XCNHG_MTU_REQ:            
 251:.\BLEApplication.c **** //            negotiatedMtu = (((CYBLE_GATT_XCHG_MTU_PARAM_T *)eventParam)->mtu < CYBLE_GATT_MTU) ?
 252:.\BLEApplication.c **** //                            ((CYBLE_GATT_XCHG_MTU_PARAM_T *)eventParam)->mtu : CYBLE_GATT_MTU;
 253:.\BLEApplication.c **** //            CyBle_GattsExchangeMtuRsp(cyBle_connHandle,negotiatedMtu);                           
 254:.\BLEApplication.c **** //                            printf("mtu is %d\r\n",negotiatedMtu);
 255:.\BLEApplication.c **** //            printf("'MTU Exchange Request' received from GATT client device\r\n");
 256:.\BLEApplication.c ****         break;
 257:.\BLEApplication.c ****         case CYBLE_EVT_GAP_DEVICE_DISCONNECTED:   
 258:.\BLEApplication.c **** //            cyBle_discoveryModeInfo.advTo = CYBLE_FAST_ADV_TIMEOUT;
 259:.\BLEApplication.c **** //            cyBle_discoveryModeInfo.advParam->advIntvMin = CYBLE_FAST_ADV_INT_MIN;
 260:.\BLEApplication.c **** //            cyBle_discoveryModeInfo.advParam->advIntvMax = CYBLE_FAST_ADV_INT_MAX;               
 261:.\BLEApplication.c **** //            if(Role==Peripheral)
 262:.\BLEApplication.c **** //            {
 263:.\BLEApplication.c **** //               printf("+DISCONN_EVT=0x%02X\r\n",*(uint8_t*)eventParam);
 264:.\BLEApplication.c **** //               if(!SleepMode)
 265:.\BLEApplication.c **** //               {
 266:.\BLEApplication.c **** //                   CyBle_GappStartAdvertisement(CYBLE_ADVERTISING_SLOW);
 267:.\BLEApplication.c **** //               }
 268:.\BLEApplication.c **** //               else
 269:.\BLEApplication.c **** //               {
 270:.\BLEApplication.c **** ////                   LowPower_EN=TURE;
 271:.\BLEApplication.c **** //                   CyBle_GappStartAdvertisement(CYBLE_ADVERTISING_FAST);//Êñ≠ÂºÄÂêéÈáçÊñ∞ÂπøÊí≠
 272:.\BLEApplication.c **** //               }
 273:.\BLEApplication.c **** //            }
 274:.\BLEApplication.c **** //            else
 275:.\BLEApplication.c **** //            {
 276:.\BLEApplication.c **** //               printf("+DISCONN_EVT=%d,0x%02X\r\n",Conn_or_Disconn_Idx,*(uint8_t*)eventParam);
 277:.\BLEApplication.c **** //               if(!SleepMode)
 278:.\BLEApplication.c **** //               {
 279:.\BLEApplication.c **** //                   CyBle_GapcStartScan(CYBLE_SCANNING_SLOW);
 280:.\BLEApplication.c **** //               }
 281:.\BLEApplication.c **** //               else
 282:.\BLEApplication.c **** //               {
ARM GAS  C:\Users\Helon\AppData\Local\Temp\ccVeYEL4.s 			page 9


 283:.\BLEApplication.c **** ////                   LowPower_EN=TURE;
 284:.\BLEApplication.c **** //               }
 285:.\BLEApplication.c **** //            }
 286:.\BLEApplication.c **** //            while((UART_SpiUartGetTxBufferSize() + UART_GET_TX_FIFO_SR_VALID) != 0);//Á≠âÂæÖ‰∏≤Âè
 287:.\BLEApplication.c **** ////            LowPower_EN=TURE;
 288:.\BLEApplication.c **** //            AUTHFLAG=FALSE;         
 289:.\BLEApplication.c **** //            CommandMode=AT_COMMAND_MODE;
 290:.\BLEApplication.c **** //            CTS_Write(CTS_OFF);
 291:.\BLEApplication.c ****             
 292:.\BLEApplication.c ****             #ifdef Client
 293:.\BLEApplication.c ****                 CyBle_GapcStartScan(CYBLE_SCANNING_FAST);
 175              		.loc 1 293 0 is_stmt 1
 176 00be 0020     		mov	r0, #0
 177              	.LVL22:
 178 00c0 FFF7FEFF 		bl	CyBle_GapcStartScan
 179              	.LVL23:
 294:.\BLEApplication.c ****             #endif
 295:.\BLEApplication.c ****             
 296:.\BLEApplication.c ****             #ifdef Server
 297:.\BLEApplication.c ****                CyBle_GappStartAdvertisement(CYBLE_ADVERTISING_FAST);
 298:.\BLEApplication.c ****                 LowPower_EN=TURE;
 299:.\BLEApplication.c ****             #endif
 300:.\BLEApplication.c ****             /* RESET Uart and flush all buffers */
 301:.\BLEApplication.c ****             UART_Stop();
 180              		.loc 1 301 0
 181 00c4 FFF7FEFF 		bl	UART_Stop
 182              	.LVL24:
 302:.\BLEApplication.c ****             UART_SpiUartClearTxBuffer();
 183              		.loc 1 302 0
 184 00c8 FFF7FEFF 		bl	UART_SpiUartClearTxBuffer
 185              	.LVL25:
 303:.\BLEApplication.c ****             UART_SpiUartClearRxBuffer();
 186              		.loc 1 303 0
 187 00cc FFF7FEFF 		bl	UART_SpiUartClearRxBuffer
 188              	.LVL26:
 304:.\BLEApplication.c ****             UART_Start();
 189              		.loc 1 304 0
 190 00d0 FFF7FEFF 		bl	UART_Start
 191              	.LVL27:
 305:.\BLEApplication.c ****         break;
 192              		.loc 1 305 0
 193 00d4 5AE0     		b	.L1
 194              	.LVL28:
 195              	.L11:
 306:.\BLEApplication.c **** //            ‰ªéÊú∫Êé•Êî∂‰∏ªÊú∫ÁöÑÂÜôËØ∑Ê±ÇÔºåÂπ∂‰∏î‰ªéÊú∫‰∏çÈúÄË¶ÅÂÜôÂìçÂ∫î
 307:.\BLEApplication.c ****         case CYBLE_EVT_GATTS_WRITE_CMD_REQ:
 308:.\BLEApplication.c ****             writeParam = *(CYBLE_GATTS_WRITE_REQ_PARAM_T *)eventParam;
 196              		.loc 1 308 0
 197 00d6 01AB     		add	r3, sp, #4
 198 00d8 07CC     		ldmia	r4!, {r0, r1, r2}
 199 00da 07C3     		stmia	r3!, {r0, r1, r2}
 200              	.LVL29:
 201 00dc 2568     		ldr	r5, [r4]
 202 00de 1D60     		str	r5, [r3]
 309:.\BLEApplication.c ****             //Ëá™ÂÆö‰πâÊúçÂä°ÁöÑCUSTOM Characteristic
 310:.\BLEApplication.c ****             if(writeParam.handleValPair.attrHandle == 
 203              		.loc 1 310 0
ARM GAS  C:\Users\Helon\AppData\Local\Temp\ccVeYEL4.s 			page 10


 204 00e0 ADB2     		uxth	r5, r5
 205 00e2 0E2D     		cmp	r5, #14
 206 00e4 0DD1     		bne	.L16
 207 00e6 06E0     		b	.L24
 208              	.LVL30:
 209              	.L17:
 311:.\BLEApplication.c ****                CYBLE_TROUGHPUT_SERVICE_CUSTOM_CHARACTERISTIC_CHAR_HANDLE)
 312:.\BLEApplication.c ****             {
 313:.\BLEApplication.c ****                 for(i=0;i<writeParam.handleValPair.value.len;i++)
 314:.\BLEApplication.c ****                 {                    
 315:.\BLEApplication.c **** //                    printf("%02X",writeParam.handleValPair.value.val[i]);
 316:.\BLEApplication.c ****                     UART_UartPutChar(writeParam.handleValPair.value.val[i]);
 210              		.loc 1 316 0 discriminator 3
 211 00e8 029B     		ldr	r3, [sp, #8]
 212 00ea 185D     		ldrb	r0, [r3, r4]
 213 00ec FFF7FEFF 		bl	UART_SpiUartWriteTxData
 214              	.LVL31:
 313:.\BLEApplication.c ****                 {                    
 215              		.loc 1 313 0 discriminator 3
 216 00f0 0134     		add	r4, r4, #1
 217              	.LVL32:
 218 00f2 E4B2     		uxtb	r4, r4
 219              	.LVL33:
 220 00f4 00E0     		b	.L15
 221              	.LVL34:
 222              	.L24:
 223 00f6 0024     		mov	r4, #0
 224              	.LVL35:
 225              	.L15:
 313:.\BLEApplication.c ****                 {                    
 226              		.loc 1 313 0 is_stmt 0 discriminator 1
 227 00f8 A3B2     		uxth	r3, r4
 228 00fa 01AA     		add	r2, sp, #4
 229 00fc 1289     		ldrh	r2, [r2, #8]
 230 00fe 9342     		cmp	r3, r2
 231 0100 F2D3     		bcc	.L17
 232              	.LVL36:
 233              	.L16:
 317:.\BLEApplication.c ****                 } 
 318:.\BLEApplication.c **** //                if(CommandMode==THROUGHT_MODE)
 319:.\BLEApplication.c **** //                {
 320:.\BLEApplication.c **** ////                    testCount+=writeParam.handleValPair.value.len;    
 321:.\BLEApplication.c **** ////                printf("0x");
 322:.\BLEApplication.c **** ////                UART_UartPutString("0x");
 323:.\BLEApplication.c **** //                     
 324:.\BLEApplication.c **** //                }
 325:.\BLEApplication.c **** //                UART_UartPutString("\r\n");
 326:.\BLEApplication.c **** //                printf("\r\n");
 327:.\BLEApplication.c **** //                UART_SpiUartWriteTxData(testCount);
 328:.\BLEApplication.c **** //                printf("%ld\r\n",testCount);
 329:.\BLEApplication.c **** //                printf("+RX=<0x");
 330:.\BLEApplication.c **** //                for(i=0;i<writeParam.handleValPair.value.len;i++)
 331:.\BLEApplication.c **** //                {
 332:.\BLEApplication.c **** //                    printf("%02X",writeParam.handleValPair.value.val[i]);
 333:.\BLEApplication.c **** //                }
 334:.\BLEApplication.c **** //                printf(">\r\n");
 335:.\BLEApplication.c ****             } 
ARM GAS  C:\Users\Helon\AppData\Local\Temp\ccVeYEL4.s 			page 11


 336:.\BLEApplication.c ****              //Ëá™ÂÆö‰πâÊúçÂä°ÁöÑClient Characteristic
 337:.\BLEApplication.c ****             if(writeParam.handleValPair.attrHandle == 
 234              		.loc 1 337 0 is_stmt 1
 235 0102 0F2D     		cmp	r5, #15
 236 0104 42D1     		bne	.L1
 338:.\BLEApplication.c ****                CYBLE_TROUGHPUT_SERVICE_CUSTOM_CHARACTERISTIC_CLIENT_CHARACTERISTIC_CONFIGURATION_DE
 339:.\BLEApplication.c ****             {
 340:.\BLEApplication.c ****                 charNotificationEnabled = writeParam.handleValPair.value.val[0];  
 237              		.loc 1 340 0
 238 0106 029B     		ldr	r3, [sp, #8]
 239 0108 1B78     		ldrb	r3, [r3]
 240 010a 214A     		ldr	r2, .L27
 241 010c 5370     		strb	r3, [r2, #1]
 341:.\BLEApplication.c ****                 if(charNotificationEnabled)
 242              		.loc 1 341 0
 243 010e 002B     		cmp	r3, #0
 244 0110 3CD0     		beq	.L1
 342:.\BLEApplication.c ****                 {     
 343:.\BLEApplication.c ****                     printf("Open Throughput\r\n");
 245              		.loc 1 343 0
 246 0112 2548     		ldr	r0, .L27+24
 247 0114 FFF7FEFF 		bl	puts
 248              	.LVL37:
 249 0118 38E0     		b	.L1
 250              	.LVL38:
 251              	.L8:
 344:.\BLEApplication.c **** //                    CommandMode=THROUGHT_MODE;
 345:.\BLEApplication.c **** //                    CTS_Write(CTS_ON);
 346:.\BLEApplication.c **** //                    printf("+MODE=THROUGHT_MODE\r\n");
 347:.\BLEApplication.c ****                 }
 348:.\BLEApplication.c **** //                else
 349:.\BLEApplication.c **** //                {
 350:.\BLEApplication.c **** //                    CommandMode=AT_COMMAND_MODE;
 351:.\BLEApplication.c **** //                    CTS_Write(CTS_OFF);
 352:.\BLEApplication.c **** //                    printf("+MODE=AT_COMMAND_MODE\r\n");
 353:.\BLEApplication.c **** //                }
 354:.\BLEApplication.c ****             }   
 355:.\BLEApplication.c ****              //Ëá™ÂÆö‰πâÊúçÂä°ÁöÑClient Characteristic
 356:.\BLEApplication.c **** //            if(writeParam.handleValPair.attrHandle == 
 357:.\BLEApplication.c **** //               CYBLE_TROUGHPUT_SERVICE_CUSTOM_CHARACTERISTIC_CLIENT_CHARACTERISTIC_CONFIGURATION_
 358:.\BLEApplication.c **** //            {
 359:.\BLEApplication.c **** //                charNotificationEnabled = writeParam.handleValPair.value.val[0];  
 360:.\BLEApplication.c **** //                if(charNotificationEnabled)
 361:.\BLEApplication.c **** //                {               
 362:.\BLEApplication.c **** //                    CommandMode=THROUGHT_MODE;
 363:.\BLEApplication.c **** //                    CTS_Write(CTS_ON);
 364:.\BLEApplication.c **** //                    printf("+MODE=THROUGHT_MODE\r\n");
 365:.\BLEApplication.c **** //                }
 366:.\BLEApplication.c **** //                else
 367:.\BLEApplication.c **** //                {
 368:.\BLEApplication.c **** //                    CommandMode=AT_COMMAND_MODE;
 369:.\BLEApplication.c **** //                    CTS_Write(CTS_OFF);
 370:.\BLEApplication.c **** //                    printf("+MODE=AT_COMMAND_MODE\r\n");
 371:.\BLEApplication.c **** //                }
 372:.\BLEApplication.c **** //            }   
 373:.\BLEApplication.c ****         break;
 374:.\BLEApplication.c ****         /* Check if the Client Characteristic Configuration Descriptor is
ARM GAS  C:\Users\Helon\AppData\Local\Temp\ccVeYEL4.s 			page 12


 375:.\BLEApplication.c ****          * written to. Notification is enabled or disabled accordingly.
 376:.\BLEApplication.c ****         */
 377:.\BLEApplication.c **** //            ‰ªéÊú∫Êé•Êî∂‰∏ªÊú∫ÁöÑÂÜôËØ∑Ê±ÇÔºåÂπ∂‰∏î‰ªéÊú∫Ë¶ÅÊúâÂÜôÂìçÂ∫î
 378:.\BLEApplication.c ****         case CYBLE_EVT_GATTS_WRITE_REQ:
 379:.\BLEApplication.c ****             writeParam = *(CYBLE_GATTS_WRITE_REQ_PARAM_T *)eventParam;
 252              		.loc 1 379 0
 253 011a 01AB     		add	r3, sp, #4
 254 011c 07CC     		ldmia	r4!, {r0, r1, r2}
 255 011e 07C3     		stmia	r3!, {r0, r1, r2}
 256              	.LVL39:
 257 0120 2568     		ldr	r5, [r4]
 258 0122 1D60     		str	r5, [r3]
 380:.\BLEApplication.c ****             //Ëá™ÂÆö‰πâÊúçÂä°ÁöÑCUSTOM Characteristic
 381:.\BLEApplication.c ****             if(writeParam.handleValPair.attrHandle == 
 259              		.loc 1 381 0
 260 0124 ADB2     		uxth	r5, r5
 261 0126 0E2D     		cmp	r5, #14
 262 0128 0DD1     		bne	.L19
 263 012a 06E0     		b	.L25
 264              	.LVL40:
 265              	.L20:
 382:.\BLEApplication.c ****                CYBLE_TROUGHPUT_SERVICE_CUSTOM_CHARACTERISTIC_CHAR_HANDLE)
 383:.\BLEApplication.c ****             {
 384:.\BLEApplication.c ****                 for(i=0;i<writeParam.handleValPair.value.len;i++)
 385:.\BLEApplication.c ****                 {                    
 386:.\BLEApplication.c **** //                    printf("%02X",writeParam.handleValPair.value.val[i]);
 387:.\BLEApplication.c ****                     UART_UartPutChar(writeParam.handleValPair.value.val[i]);
 266              		.loc 1 387 0 discriminator 3
 267 012c 029B     		ldr	r3, [sp, #8]
 268 012e 185D     		ldrb	r0, [r3, r4]
 269 0130 FFF7FEFF 		bl	UART_SpiUartWriteTxData
 270              	.LVL41:
 384:.\BLEApplication.c ****                 {                    
 271              		.loc 1 384 0 discriminator 3
 272 0134 0134     		add	r4, r4, #1
 273              	.LVL42:
 274 0136 E4B2     		uxtb	r4, r4
 275              	.LVL43:
 276 0138 00E0     		b	.L18
 277              	.LVL44:
 278              	.L25:
 279 013a 0024     		mov	r4, #0
 280              	.LVL45:
 281              	.L18:
 384:.\BLEApplication.c ****                 {                    
 282              		.loc 1 384 0 is_stmt 0 discriminator 1
 283 013c A3B2     		uxth	r3, r4
 284 013e 01AA     		add	r2, sp, #4
 285 0140 1289     		ldrh	r2, [r2, #8]
 286 0142 9342     		cmp	r3, r2
 287 0144 F2D3     		bcc	.L20
 288              	.LVL46:
 289              	.L19:
 388:.\BLEApplication.c ****                 }  
 389:.\BLEApplication.c **** //                if(CommandMode==THROUGHT_MODE)
 390:.\BLEApplication.c **** //                {
 391:.\BLEApplication.c **** ////                    testCount+=writeParam.handleValPair.value.len;    
ARM GAS  C:\Users\Helon\AppData\Local\Temp\ccVeYEL4.s 			page 13


 392:.\BLEApplication.c **** ////                printf("0x");
 393:.\BLEApplication.c **** ////                UART_UartPutString("0x");
 394:.\BLEApplication.c **** //                    
 395:.\BLEApplication.c **** //                }
 396:.\BLEApplication.c **** //                UART_UartPutString("\r\n");
 397:.\BLEApplication.c **** //                printf("\r\n");
 398:.\BLEApplication.c **** //                UART_SpiUartWriteTxData(testCount);
 399:.\BLEApplication.c **** //                printf("%ld\r\n",testCount);
 400:.\BLEApplication.c **** //                printf("+RX=<0x");
 401:.\BLEApplication.c **** //                for(i=0;i<writeParam.handleValPair.value.len;i++)
 402:.\BLEApplication.c **** //                {
 403:.\BLEApplication.c **** //                    printf("%02X",writeParam.handleValPair.value.val[i]);
 404:.\BLEApplication.c **** //                }
 405:.\BLEApplication.c **** //                printf(">\r\n");
 406:.\BLEApplication.c ****             } 
 407:.\BLEApplication.c ****              //Ëá™ÂÆö‰πâÊúçÂä°ÁöÑClient Characteristic
 408:.\BLEApplication.c ****             if(writeParam.handleValPair.attrHandle == 
 290              		.loc 1 408 0 is_stmt 1
 291 0146 0F2D     		cmp	r5, #15
 292 0148 08D1     		bne	.L21
 409:.\BLEApplication.c ****                CYBLE_TROUGHPUT_SERVICE_CUSTOM_CHARACTERISTIC_CLIENT_CHARACTERISTIC_CONFIGURATION_DE
 410:.\BLEApplication.c ****             {
 411:.\BLEApplication.c ****                 charNotificationEnabled = writeParam.handleValPair.value.val[0];  
 293              		.loc 1 411 0
 294 014a 029B     		ldr	r3, [sp, #8]
 295 014c 1B78     		ldrb	r3, [r3]
 296 014e 104A     		ldr	r2, .L27
 297 0150 5370     		strb	r3, [r2, #1]
 412:.\BLEApplication.c ****                 if(charNotificationEnabled)
 298              		.loc 1 412 0
 299 0152 002B     		cmp	r3, #0
 300 0154 02D0     		beq	.L21
 413:.\BLEApplication.c ****                 {     
 414:.\BLEApplication.c ****                     printf("Open Throughput\r\n");
 301              		.loc 1 414 0
 302 0156 1448     		ldr	r0, .L27+24
 303 0158 FFF7FEFF 		bl	puts
 304              	.LVL47:
 305              	.L21:
 415:.\BLEApplication.c **** //                    CommandMode=THROUGHT_MODE;
 416:.\BLEApplication.c **** //                    CTS_Write(CTS_ON);
 417:.\BLEApplication.c **** //                    printf("+MODE=THROUGHT_MODE\r\n");
 418:.\BLEApplication.c ****                 }
 419:.\BLEApplication.c **** //                else
 420:.\BLEApplication.c **** //                {
 421:.\BLEApplication.c **** //                    CommandMode=AT_COMMAND_MODE;
 422:.\BLEApplication.c **** //                    CTS_Write(CTS_OFF);
 423:.\BLEApplication.c **** //                    printf("+MODE=AT_COMMAND_MODE\r\n");
 424:.\BLEApplication.c **** //                }
 425:.\BLEApplication.c ****             }   
 426:.\BLEApplication.c **** //            writeParam = *(CYBLE_GATTS_WRITE_REQ_PARAM_T *)eventParam;
 427:.\BLEApplication.c **** //            //Ëá™ÂÆö‰πâÊúçÂä°ÁöÑCUSTOM Characteristic
 428:.\BLEApplication.c **** //            if(writeParam.handleValPair.attrHandle == 
 429:.\BLEApplication.c **** //               CYBLE_TROUGHPUT_SERVICE_CUSTOM_CHARACTERISTIC_CHAR_HANDLE)
 430:.\BLEApplication.c **** //            {
 431:.\BLEApplication.c **** //                testCount+=writeParam.handleValPair.value.len;
 432:.\BLEApplication.c **** ////                UART_SpiUartWriteTxData(testCount);
ARM GAS  C:\Users\Helon\AppData\Local\Temp\ccVeYEL4.s 			page 14


 433:.\BLEApplication.c **** ////                printf("%ld\r\n",testCount);
 434:.\BLEApplication.c **** ////                printf("+RX=<0x");
 435:.\BLEApplication.c **** ////                for(i=0;i<writeParam.handleValPair.value.len;i++)
 436:.\BLEApplication.c **** ////                {
 437:.\BLEApplication.c **** ////                    printf("%02X",writeParam.handleValPair.value.val[i]);
 438:.\BLEApplication.c **** ////                }
 439:.\BLEApplication.c **** ////                printf(">\r\n");
 440:.\BLEApplication.c **** //            } 
 441:.\BLEApplication.c **** //            //Ëá™ÂÆö‰πâÊúçÂä°ÁöÑClient Characteristic
 442:.\BLEApplication.c **** //            if(writeParam.handleValPair.attrHandle == 
 443:.\BLEApplication.c **** //               CYBLE_TROUGHPUT_SERVICE_CUSTOM_CHARACTERISTIC_CLIENT_CHARACTERISTIC_CONFIGURATION_
 444:.\BLEApplication.c **** //            {
 445:.\BLEApplication.c **** //                charNotificationEnabled = writeParam.handleValPair.value.val[0];  
 446:.\BLEApplication.c **** //                if(charNotificationEnabled)
 447:.\BLEApplication.c **** //                {               
 448:.\BLEApplication.c **** //                    CommandMode=THROUGHT_MODE;
 449:.\BLEApplication.c **** //                    printf("+MODE=<THROUGHT_MODE>\r\n");
 450:.\BLEApplication.c **** //                }
 451:.\BLEApplication.c **** //                else
 452:.\BLEApplication.c **** //                {
 453:.\BLEApplication.c **** //                    CommandMode=AT_COMMAND_MODE;
 454:.\BLEApplication.c **** //                    printf("+MODE=<AT_COMMAND_MODE>\r\n");
 455:.\BLEApplication.c **** //                }
 456:.\BLEApplication.c **** //            }   
 457:.\BLEApplication.c **** //            //Ëá™ÂÆö‰πâÊúçÂä°ÁöÑSPEEDTEST Characteristic
 458:.\BLEApplication.c **** //            if(writeParam.handleValPair.attrHandle == 
 459:.\BLEApplication.c **** //               CYBLE_TROUGHPUT_SERVICE_SPEEDTEST_CHAR_HANDLE)
 460:.\BLEApplication.c **** //            {
 461:.\BLEApplication.c **** //                TroughtTest_Flag = writeParam.handleValPair.value.val[0];                
 462:.\BLEApplication.c **** //            }               
 463:.\BLEApplication.c ****             CyBle_GattsWriteRsp(cyBle_connHandle);
 306              		.loc 1 463 0
 307 015c 114A     		ldr	r2, .L27+20
 308 015e 1378     		ldrb	r3, [r2]
 309 0160 5078     		ldrb	r0, [r2, #1]
 310 0162 0002     		lsl	r0, r0, #8
 311 0164 1843     		orr	r0, r3
 312 0166 FFF7FEFF 		bl	CyBle_GattsWriteRsp
 313              	.LVL48:
 464:.\BLEApplication.c ****         break;
 314              		.loc 1 464 0
 315 016a 0FE0     		b	.L1
 316              	.LVL49:
 317              	.L12:
 465:.\BLEApplication.c **** //        ÂÅö‰∏∫‰∏ªÊú∫Êó∂ÔºåÊé•Êî∂Âà∞‰ªéÊú∫ÁöÑÂÜôÂìçÂ∫î
 466:.\BLEApplication.c ****         case CYBLE_EVT_GATTC_WRITE_RSP:
 467:.\BLEApplication.c ****             /* Write response for the CCCD write; this means that the
 468:.\BLEApplication.c ****              * notifications are now enabled.
 469:.\BLEApplication.c ****              * Start timing measurements to calculate throughput.
 470:.\BLEApplication.c ****              */
 471:.\BLEApplication.c **** //            if(TroughtTest_Flag)//‰ªÖ‰ªÖÂìçÂ∫îÊµãËØïÈÄè‰º†ÈÄüÁéáÊåá‰ª§,ÂÖ∂‰ªñÂÜôËØ∑Ê±Ç‰∏çÂìçÂ∫î
 472:.\BLEApplication.c **** //            {                
 473:.\BLEApplication.c **** ////                TroughtTest_Flag=FALSE;
 474:.\BLEApplication.c **** //                UART_UartPutString("Calculating throughput. Please wait...\n\r");
 475:.\BLEApplication.c **** //                Timer_Enable();
 476:.\BLEApplication.c **** //            }
 477:.\BLEApplication.c ****         break;
ARM GAS  C:\Users\Helon\AppData\Local\Temp\ccVeYEL4.s 			page 15


 478:.\BLEApplication.c **** //        case CYBLE_EVT_GATTC_READ_RSP:
 479:.\BLEApplication.c **** //            readParam=*(CYBLE_GATTC_READ_RSP_PARAM_T*)eventParam;
 480:.\BLEApplication.c **** //            if((readParam.value.val[0]))
 481:.\BLEApplication.c **** //                printf("+NOTIFY=<ENABLE>\r\n");
 482:.\BLEApplication.c **** //            else
 483:.\BLEApplication.c **** //                printf("+NOTIFY=<DISABLE>\r\n");
 484:.\BLEApplication.c **** //        break;
 485:.\BLEApplication.c **** //        Êé•Êî∂‰ªéÊú∫ÂèëÈÄÅËøáÊù•ÁöÑÈÄè‰º†Êï∞ÊçÆ            
 486:.\BLEApplication.c ****         case CYBLE_EVT_GATTC_HANDLE_VALUE_NTF:
 487:.\BLEApplication.c ****             handleValueNotification = (CYBLE_GATTC_HANDLE_VALUE_NTF_PARAM_T *)eventParam;
 488:.\BLEApplication.c ****             if(handleValueNotification->handleValPair.attrHandle == CYBLE_TROUGHPUT_SERVICE_CUSTOM_
 318              		.loc 1 488 0
 319 016c 8B89     		ldrh	r3, [r1, #12]
 320 016e 0E2B     		cmp	r3, #14
 321 0170 0CD1     		bne	.L1
 322 0172 06E0     		b	.L26
 323              	.LVL50:
 324              	.L23:
 489:.\BLEApplication.c ****             {
 490:.\BLEApplication.c **** //                printf("Len is %d",handleValueNotification->handleValPair.value.len);
 491:.\BLEApplication.c **** //                    totalByteCounter += handleValueNotification->handleValPair.value.len;
 492:.\BLEApplication.c **** //                    printf("%ld\r\n",totalByteCounter);
 493:.\BLEApplication.c **** //                        printf("+RX=<0x");
 494:.\BLEApplication.c ****                 for(i=0;i<handleValueNotification->handleValPair.value.len;i++)
 495:.\BLEApplication.c ****                 {
 496:.\BLEApplication.c **** //                            printf("%02X",handleValueNotification->handleValPair.value.val[i]);
 497:.\BLEApplication.c ****                     UART_UartPutChar(handleValueNotification->handleValPair.value.val[i]);
 325              		.loc 1 497 0 discriminator 3
 326 0174 6368     		ldr	r3, [r4, #4]
 327 0176 585D     		ldrb	r0, [r3, r5]
 328 0178 FFF7FEFF 		bl	UART_SpiUartWriteTxData
 329              	.LVL51:
 494:.\BLEApplication.c ****                 {
 330              		.loc 1 494 0 discriminator 3
 331 017c 0135     		add	r5, r5, #1
 332              	.LVL52:
 333 017e EDB2     		uxtb	r5, r5
 334              	.LVL53:
 335 0180 00E0     		b	.L22
 336              	.LVL54:
 337              	.L26:
 338 0182 0025     		mov	r5, #0
 339              	.LVL55:
 340              	.L22:
 494:.\BLEApplication.c ****                 {
 341              		.loc 1 494 0 is_stmt 0 discriminator 1
 342 0184 ABB2     		uxth	r3, r5
 343 0186 2289     		ldrh	r2, [r4, #8]
 344 0188 9342     		cmp	r3, r2
 345 018a F3D3     		bcc	.L23
 346              	.LVL56:
 347              	.L1:
 498:.\BLEApplication.c ****                 }
 499:.\BLEApplication.c **** //                  if(CommandMode==THROUGHT_MODE)
 500:.\BLEApplication.c **** //                  {
 501:.\BLEApplication.c **** //                    for(i=0;i<handleValueNotification->handleValPair.value.len;i++)
 502:.\BLEApplication.c **** //                    {
ARM GAS  C:\Users\Helon\AppData\Local\Temp\ccVeYEL4.s 			page 16


 503:.\BLEApplication.c **** ////                            printf("%02X",handleValueNotification->handleValPair.value.val[i]);
 504:.\BLEApplication.c **** //                        UART_UartPutChar(handleValueNotification->handleValPair.value.val[i]);
 505:.\BLEApplication.c **** //                    }
 506:.\BLEApplication.c **** //                  }
 507:.\BLEApplication.c **** //                        printf("\r\n");
 508:.\BLEApplication.c ****             }
 509:.\BLEApplication.c **** //            if(TroughtTest_Flag==TRUE)
 510:.\BLEApplication.c **** //            {
 511:.\BLEApplication.c **** //                if(Central==Role)//‰ªÖÊµãËØïÈÄè‰º†ÈÄüÁéáÊó∂ÊúâÊïà
 512:.\BLEApplication.c **** //                {
 513:.\BLEApplication.c **** //                    handleValueNotification = (CYBLE_GATTC_HANDLE_VALUE_NTF_PARAM_T *)eventParam;
 514:.\BLEApplication.c **** //                    if(handleValueNotification->handleValPair.attrHandle == 0x000E)//NotifyÊùÉÈôê
 515:.\BLEApplication.c **** //                    {
 516:.\BLEApplication.c **** //        //                printf("Len is %d",handleValueNotification->handleValPair.value.len);
 517:.\BLEApplication.c **** //                        totalByteCounter += handleValueNotification->handleValPair.value.len;
 518:.\BLEApplication.c **** //                    }
 519:.\BLEApplication.c **** //    //                printf("ReceviceNotification\r\n");
 520:.\BLEApplication.c **** //                }
 521:.\BLEApplication.c **** //            }
 522:.\BLEApplication.c **** //            else
 523:.\BLEApplication.c **** //            {
 524:.\BLEApplication.c **** //                if(Central==Role)//Êé•Êî∂‰ªéÊú∫ÂèëÈÄÅËøáÊù•ÁöÑÈÄè‰º†Êï∞ÊçÆ
 525:.\BLEApplication.c **** //                {
 526:.\BLEApplication.c **** //                    handleValueNotification = (CYBLE_GATTC_HANDLE_VALUE_NTF_PARAM_T *)eventParam;
 527:.\BLEApplication.c **** //                    if(handleValueNotification->handleValPair.attrHandle == 0x000E)//NotifyÊùÉÈôê
 528:.\BLEApplication.c **** //                    {
 529:.\BLEApplication.c **** //        //                printf("Len is %d",handleValueNotification->handleValPair.value.len);
 530:.\BLEApplication.c **** //    //                    totalByteCounter += handleValueNotification->handleValPair.value.len;
 531:.\BLEApplication.c **** //    //                    printf("%ld\r\n",totalByteCounter);
 532:.\BLEApplication.c **** ////                        printf("+RX=<0x");
 533:.\BLEApplication.c **** //                          if(CommandMode==THROUGHT_MODE)
 534:.\BLEApplication.c **** //                          {
 535:.\BLEApplication.c **** //                            for(i=0;i<handleValueNotification->handleValPair.value.len;i++)
 536:.\BLEApplication.c **** //                            {
 537:.\BLEApplication.c **** //    //                            printf("%02X",handleValueNotification->handleValPair.value.val[
 538:.\BLEApplication.c **** //                                UART_UartPutChar(handleValueNotification->handleValPair.value.val
 539:.\BLEApplication.c **** //                            }
 540:.\BLEApplication.c **** //                          }
 541:.\BLEApplication.c **** ////                        printf("\r\n");
 542:.\BLEApplication.c **** //                    }
 543:.\BLEApplication.c **** //                }
 544:.\BLEApplication.c **** //            }
 545:.\BLEApplication.c ****             break;
 546:.\BLEApplication.c ****         case CYBLE_EVT_GATTC_READ_BY_TYPE_RSP:
 547:.\BLEApplication.c **** //            DisAllCharResult=*((CYBLE_GATTC_READ_BY_TYPE_RSP_PARAM_T*)eventParam);
 548:.\BLEApplication.c **** //            printf("characteristic declaration is 0x%04X\r\n",DisAllCharResult.connHandle.bdHandl
 549:.\BLEApplication.c **** //            printf("attrLen is %d\r\n",DisAllCharResult.attrData.attrLen);   
 550:.\BLEApplication.c **** //            for(i=0;i<DisAllCharResult.attrData.attrLen;)
 551:.\BLEApplication.c **** //            {
 552:.\BLEApplication.c **** //                printf("Attribute Handle is 0x%02X%02X\r\n",DisAllCharResult.attrData.attrValue[i
 553:.\BLEApplication.c **** //                printf("Properties is 0x%02X\r\n",DisAllCharResult.attrData.attrValue[i+2]); 
 554:.\BLEApplication.c **** //                printf("Pointer Handle is 0x%02X%02X\r\n",DisAllCharResult.attrData.attrValue[i+4
 555:.\BLEApplication.c **** //                printf("UUID is 0x%02X%02X\r\n",DisAllCharResult.attrData.attrValue[i+6],DisAllCh
 556:.\BLEApplication.c **** //                i+=7;
 557:.\BLEApplication.c **** //            }
 558:.\BLEApplication.c **** //            printf("uuid16 is 0x%04X\r\n",DisAllCharResult.uuid.uuid16); 
 559:.\BLEApplication.c **** //            printf("uuidFormat is 0x%04X\r\n",DisAllCharResult.uuidFormat); 
ARM GAS  C:\Users\Helon\AppData\Local\Temp\ccVeYEL4.s 			page 17


 560:.\BLEApplication.c **** //            printf("valueHandle is 0x%04X\r\n",DisAllCharResult.valueHandle);            
 561:.\BLEApplication.c ****         break;
 562:.\BLEApplication.c **** //        Êü•ÊâæServerÁöÑÊâÄÊúâÁâπÂæÅÂÄº
 563:.\BLEApplication.c ****         case CYBLE_EVT_GATTC_FIND_INFO_RSP:
 564:.\BLEApplication.c **** //            DisAllCharResult=*((CYBLE_GATTC_FIND_INFO_RSP_PARAM_T *)eventParam);
 565:.\BLEApplication.c **** ////            printf("+DISALLCHAR=<0x%02X%02X,",);
 566:.\BLEApplication.c **** ////            printf("connHandle is 0x%04X\r\n",DisAllCharResult.connHandle.bdHandle);
 567:.\BLEApplication.c **** ////            printf("uuidFormat is %d\r\n",DisAllCharResult.uuidFormat);
 568:.\BLEApplication.c **** ////            printf("byteCount is %d\r\n",DisAllCharResult.handleValueList.byteCount);
 569:.\BLEApplication.c **** //            for(i=0;i<DisAllCharResult.handleValueList.byteCount;)
 570:.\BLEApplication.c **** //            {                
 571:.\BLEApplication.c **** //                printf("+DIS_EVT=0x%02X%02X,0x%02X%02X\r\n",
 572:.\BLEApplication.c **** //                    DisAllCharResult.handleValueList.list[i+1],DisAllCharResult.handleValueList.l
 573:.\BLEApplication.c **** //                    DisAllCharResult.handleValueList.list[i+3],DisAllCharResult.handleValueList.l
 574:.\BLEApplication.c **** //                i=i+4;
 575:.\BLEApplication.c **** //            }
 576:.\BLEApplication.c ****         break;
 577:.\BLEApplication.c ****         case CYBLE_EVT_GAP_AUTH_REQ:
 578:.\BLEApplication.c **** //            if(Role==Peripheral)//‰ªéÊú∫Êé•Êî∂‰∏ªÊú∫ÂèëËµ∑ËÆ§ËØÅËØ∑Ê±Ç
 579:.\BLEApplication.c **** //            {
 580:.\BLEApplication.c **** //                CyBle_GappAuthReqReply(cyBle_connHandle.bdHandle,&cyBle_authInfo);
 581:.\BLEApplication.c **** //            }
 582:.\BLEApplication.c **** //            else
 583:.\BLEApplication.c **** //            {
 584:.\BLEApplication.c **** ////                CyBle_GappAuthReq();
 585:.\BLEApplication.c **** //            }
 586:.\BLEApplication.c ****         break;    
 587:.\BLEApplication.c ****         case CYBLE_EVT_GAP_PASSKEY_DISPLAY_REQUEST://ÊòæÁ§∫ÈöèÊú∫‰∫ßÁîüÁöÑÈÖçÂØπÁ†Å
 588:.\BLEApplication.c **** //            printf("+AUTHKEY=%6.6lu\r\n",*(uint32 *)eventParam);
 589:.\BLEApplication.c **** //            PassKey=*(uint32*)eventParam;   
 590:.\BLEApplication.c **** //            if((*(uint32 *)eventParam)<100000)//Ëß£ÂÜ≥ÈöèÊú∫ÈÖçÂØπÁ†ÅÊúÄÈ´ò‰ΩçÊòØ0Êó∂ÁöÑÊÉÖÂÜµ
 591:.\BLEApplication.c **** //            {
 592:.\BLEApplication.c **** //                printf("+AUTHKEY=0");
 593:.\BLEApplication.c **** //                printf("%lu\r\n",*(uint32 *)eventParam);                
 594:.\BLEApplication.c **** //            }
 595:.\BLEApplication.c **** //            else
 596:.\BLEApplication.c **** //                printf("+AUTHKEY=%lu\r\n",*(uint32 *)eventParam);
 597:.\BLEApplication.c ****         break;
 598:.\BLEApplication.c ****         case CYBLE_EVT_GAP_PASSKEY_ENTRY_REQUEST:
 599:.\BLEApplication.c **** //            KEYBOARD=TURE;//Ê†áËÆ∞Ê≠§Êó∂Ê≠§ËÆæÂ§áÂÖ∑ÊúâËæìÂÖ•ËÉΩÂäõ
 600:.\BLEApplication.c **** //            printf("Please Input PassKey:\r\n");            
 601:.\BLEApplication.c ****         break;
 602:.\BLEApplication.c ****         case CYBLE_EVT_GAP_AUTH_COMPLETE:
 603:.\BLEApplication.c **** //             printf("+AUTH=OK\r\n");
 604:.\BLEApplication.c **** //             AUTHFLAG=TURE;
 605:.\BLEApplication.c ****         break;
 606:.\BLEApplication.c ****         case CYBLE_EVT_GAP_AUTH_FAILED:            
 607:.\BLEApplication.c **** //            printf("AT+AUTHERR=%d\r\n",*(CYBLE_GAP_AUTH_FAILED_REASON_T*)eventParam);
 608:.\BLEApplication.c **** //            AUTHFLAG=FALSE;
 609:.\BLEApplication.c ****         break;
 610:.\BLEApplication.c ****         default:
 611:.\BLEApplication.c ****         break;
 612:.\BLEApplication.c ****     
 613:.\BLEApplication.c ****     }
 614:.\BLEApplication.c **** }
 348              		.loc 1 614 0 is_stmt 1
 349 018c 0BB0     		add	sp, sp, #44
ARM GAS  C:\Users\Helon\AppData\Local\Temp\ccVeYEL4.s 			page 18


 350              		@ sp needed
 351 018e 30BD     		pop	{r4, r5, pc}
 352              	.L28:
 353              		.align	2
 354              	.L27:
 355 0190 00000000 		.word	.LANCHOR0
 356 0194 00000000 		.word	DeviceCount
 357 0198 00000000 		.word	DeviceInfo
 358 019c 00000000 		.word	.LC3
 359 01a0 00000000 		.word	writeRequestData
 360 01a4 00000000 		.word	cyBle_connHandle
 361 01a8 14000000 		.word	.LC7
 362 01ac 08022540 		.word	1076167176
 363              		.cfi_endproc
 364              	.LFE37:
 365              		.size	StackEventHandler, .-StackEventHandler
 366              		.section	.text.MyTimerIsr,"ax",%progbits
 367              		.align	2
 368              		.global	MyTimerIsr
 369              		.code	16
 370              		.thumb_func
 371              		.type	MyTimerIsr, %function
 372              	MyTimerIsr:
 373              	.LFB47:
 615:.\BLEApplication.c **** 
 616:.\BLEApplication.c **** 
 617:.\BLEApplication.c **** /******************************************************************************
 618:.\BLEApplication.c **** * Function Name: LowPowerManagement
 619:.\BLEApplication.c **** ***************************************************************************//**
 620:.\BLEApplication.c **** * 
 621:.\BLEApplication.c **** *  BLE‰ΩéÂäüËÄóÁÆ°ÁêÜ
 622:.\BLEApplication.c **** * 
 623:.\BLEApplication.c **** * \return
 624:.\BLEApplication.c **** *  None
 625:.\BLEApplication.c **** * 
 626:.\BLEApplication.c **** ******************************************************************************/
 627:.\BLEApplication.c **** //uint8_t size=0,ch[10]={0},i=0;
 628:.\BLEApplication.c **** void LowPowerManagement(void)
 629:.\BLEApplication.c **** {
 630:.\BLEApplication.c ****     /* Local variable to store the status of BLESS Hardware block */
 631:.\BLEApplication.c **** 		CYBLE_LP_MODE_T sleepMode;
 632:.\BLEApplication.c **** 		CYBLE_BLESS_STATE_T blessState;
 633:.\BLEApplication.c **** 	
 634:.\BLEApplication.c **** 		/* Put BLESS into Deep Sleep and check the return status */
 635:.\BLEApplication.c **** 		sleepMode = CyBle_EnterLPM(CYBLE_BLESS_DEEPSLEEP);
 636:.\BLEApplication.c **** 		
 637:.\BLEApplication.c **** 		/* Disable global interrupt to prevent changes from any other interrupt ISR */
 638:.\BLEApplication.c **** 		CyGlobalIntDisable;
 639:.\BLEApplication.c **** 	
 640:.\BLEApplication.c **** 		/* Check the Status of BLESS */
 641:.\BLEApplication.c **** 		blessState = CyBle_GetBleSsState();
 642:.\BLEApplication.c **** 
 643:.\BLEApplication.c **** 		if(sleepMode == CYBLE_BLESS_DEEPSLEEP)
 644:.\BLEApplication.c **** 		{
 645:.\BLEApplication.c **** 		    /* If the ECO has started or the BLESS can go to Deep Sleep, then place CPU 
 646:.\BLEApplication.c **** 			* to Deep Sleep */
 647:.\BLEApplication.c **** 			if(blessState == CYBLE_BLESS_STATE_ECO_ON || blessState == CYBLE_BLESS_STATE_DEEPSLEEP)
ARM GAS  C:\Users\Helon\AppData\Local\Temp\ccVeYEL4.s 			page 19


 648:.\BLEApplication.c **** 		    {
 649:.\BLEApplication.c **** //                UART_Sleep();
 650:.\BLEApplication.c **** //                while((UART_SpiUartGetTxBufferSize() + UART_GET_TX_FIFO_SR_VALID) != 0);//Á≠âÂæÖ‰
 651:.\BLEApplication.c **** //                UART_Sleep();
 652:.\BLEApplication.c ****                 CySysPmDeepSleep();
 653:.\BLEApplication.c **** //                UART_Wakeup();
 654:.\BLEApplication.c **** //                CyDelay(5);
 655:.\BLEApplication.c **** //                UART_SpiUartClearRxBuffer();//Ê∏ÖÈô§‰∏≤Âè£Êé•Êî∂ÁºìÂÜ≤Âå∫
 656:.\BLEApplication.c **** //                UART_RX_WAKEUP_IRQ_ClearPending();
 657:.\BLEApplication.c **** ////                UART_SCB_IRQ_ClearPending();
 658:.\BLEApplication.c **** //                UART_rx_wake_ClearInterrupt();     
 659:.\BLEApplication.c **** //                printf("Device is going into DeepSleep!\r\n");
 660:.\BLEApplication.c **** //                Status_LED_Write(LED_ON);             
 661:.\BLEApplication.c **** //                while((UART_SpiUartGetTxBufferSize() + UART_GET_TX_FIFO_SR_VALID) != 0);//Á≠âÂæÖ‰
 662:.\BLEApplication.c **** //                UART_Sleep();
 663:.\BLEApplication.c **** //		        CySysPmDeepSleep();
 664:.\BLEApplication.c **** //                UART_Wakeup();
 665:.\BLEApplication.c **** //                CyDelay(5);
 666:.\BLEApplication.c **** //                UART_SpiUartClearRxBuffer();//Ê∏ÖÈô§‰∏≤Âè£Êé•Êî∂ÁºìÂÜ≤Âå∫
 667:.\BLEApplication.c **** //                UART_RX_WAKEUP_IRQ_ClearPending();
 668:.\BLEApplication.c **** ////                UART_SCB_IRQ_ClearPending();
 669:.\BLEApplication.c **** //                UART_rx_wake_ClearInterrupt();                
 670:.\BLEApplication.c **** ////                UART_RX_WAKEUP_IRQ_Disable();
 671:.\BLEApplication.c **** ////                UART_UartPutString("Device is WakeUp!\r\n");                
 672:.\BLEApplication.c **** ////                Âî§ÈÜíÂêé‰ΩøËÉΩ‰∏≤Âè£Êé•Êî∂‰∏≠Êñ≠
 673:.\BLEApplication.c **** ////                  UART_SetCustomInterruptHandler(My_ISR_UART);            
 674:.\BLEApplication.c **** //                LowPower_EN=FALSE;
 675:.\BLEApplication.c **** //                Status_LED_Write(LED_OFF);  
 676:.\BLEApplication.c **** 
 677:.\BLEApplication.c **** 		 	}
 678:.\BLEApplication.c **** 		}
 679:.\BLEApplication.c **** 		else if(sleepMode == CYBLE_BLESS_SLEEP)
 680:.\BLEApplication.c **** 		{
 681:.\BLEApplication.c **** 		    if(blessState != CYBLE_BLESS_STATE_EVENT_CLOSE)
 682:.\BLEApplication.c **** 		    {
 683:.\BLEApplication.c **** 				/* If the BLESS hardware block cannot go to Deep Sleep and BLE Event has not 
 684:.\BLEApplication.c **** 				* closed yet, then place CPU to Sleep */ 
 685:.\BLEApplication.c **** 		        CySysPmSleep();  
 686:.\BLEApplication.c **** 		    }
 687:.\BLEApplication.c **** 		}
 688:.\BLEApplication.c **** 		/* Re-enable global interrupt mask after wakeup */
 689:.\BLEApplication.c **** 		CyGlobalIntEnable;           
 690:.\BLEApplication.c ****         
 691:.\BLEApplication.c **** }
 692:.\BLEApplication.c **** 
 693:.\BLEApplication.c **** /******************************************************************************
 694:.\BLEApplication.c **** * Function Name: MY_ISR_USERBUTTON
 695:.\BLEApplication.c **** ***************************************************************************//**
 696:.\BLEApplication.c **** * 
 697:.\BLEApplication.c **** *  Âî§ÈÜíÊåâÈîÆ‰∏≠Êñ≠Â§ÑÁêÜÂáΩÊï∞
 698:.\BLEApplication.c **** * 
 699:.\BLEApplication.c **** * \return
 700:.\BLEApplication.c **** *  None
 701:.\BLEApplication.c **** * 
 702:.\BLEApplication.c **** ******************************************************************************/
 703:.\BLEApplication.c **** CY_ISR(MY_ISR_USERBUTTON)
 704:.\BLEApplication.c **** {
ARM GAS  C:\Users\Helon\AppData\Local\Temp\ccVeYEL4.s 			page 20


 705:.\BLEApplication.c **** //    isr_UserButton_ClearPending();
 706:.\BLEApplication.c **** //    UserButton_ClearInterrupt();
 707:.\BLEApplication.c **** ////    Ê∏ÖÈô§‰∏≤Âè£Êé•Êî∂ÁºìÂÜ≤Âå∫,Èò≤Ê≠¢‰øÆÊîπ‰∫Ü‰∏≤Âè£Ê≥¢ÁâπÁéá‰πãÂêé,ÂèëÈÄÅÁ´ØÊú™ÂèäÊó∂Áõ∏Â∫îÁö
 708:.\BLEApplication.c **** //    memset(RX_BUFFER,0,sizeof(RX_BUFFER));
 709:.\BLEApplication.c **** //    Buffer_Length=0;
 710:.\BLEApplication.c **** //    if(Peripheral==Role)
 711:.\BLEApplication.c **** //    {
 712:.\BLEApplication.c **** //        CyBle_GappStartAdvertisement(CYBLE_ADVERTISING_FAST);
 713:.\BLEApplication.c **** //    }
 714:.\BLEApplication.c **** //    StartScan=TRUE;
 715:.\BLEApplication.c **** //    printf("test!\r\n");
 716:.\BLEApplication.c **** }
 717:.\BLEApplication.c **** /******************************************************************************
 718:.\BLEApplication.c **** * Function Name: My_ISR_UART
 719:.\BLEApplication.c **** ***************************************************************************//**
 720:.\BLEApplication.c **** * 
 721:.\BLEApplication.c **** *  ‰∏≤Âè£Êé•Êî∂‰∏≠Êñ≠Â§ÑÁêÜÂáΩÊï∞
 722:.\BLEApplication.c **** * 
 723:.\BLEApplication.c **** * \return
 724:.\BLEApplication.c **** *  None
 725:.\BLEApplication.c **** * 
 726:.\BLEApplication.c **** ******************************************************************************/
 727:.\BLEApplication.c **** CY_ISR(My_ISR_UART)
 728:.\BLEApplication.c **** {
 729:.\BLEApplication.c **** //    uint8_t rxdata;
 730:.\BLEApplication.c ****     if(UART_GetRxInterruptSourceMasked()&UART_INTR_RX_NOT_EMPTY)//Âà§Êñ≠Êé•Êî∂‰∏≠Êñ≠ÁöÑÁ±ªÂûã
 731:.\BLEApplication.c ****     {
 732:.\BLEApplication.c ****         rx_isover=TURE;
 733:.\BLEApplication.c ****         //ËØªÂèñ‰∏≤Âè£Êï∞ÊçÆ
 734:.\BLEApplication.c **** //        rxdata=UART_UartGetByte();
 735:.\BLEApplication.c **** //        if(rxdata!='\n')
 736:.\BLEApplication.c **** //        {
 737:.\BLEApplication.c **** //          RX_BUFFER[Buffer_Length]=rxdata;//ËØªÂèñ‰∏≤Âè£Êé•Êî∂ÁºìÂÜ≤Âå∫ÁöÑÊï∞ÊçÆ
 738:.\BLEApplication.c **** //          Buffer_Length++;
 739:.\BLEApplication.c **** //        }
 740:.\BLEApplication.c **** //        else
 741:.\BLEApplication.c **** //        {          
 742:.\BLEApplication.c **** //          RX_BUFFER[Buffer_Length]=rxdata;//ËØªÂèñ‰∏≤Âè£Êé•Êî∂ÁºìÂÜ≤Âå∫ÁöÑÊï∞ÊçÆ
 743:.\BLEApplication.c **** //          rx_isover=TURE;
 744:.\BLEApplication.c **** //        }
 745:.\BLEApplication.c ****     }
 746:.\BLEApplication.c **** //    UART_SpiUartClearRxBuffer();//Ê∏ÖÈô§‰∏≤Âè£Êé•Êî∂ÁºìÂÜ≤Âå∫
 747:.\BLEApplication.c **** //    UART_RX_WAKEUP_IRQ_ClearPending();
 748:.\BLEApplication.c **** //    UART_SCB_IRQ_ClearPending();
 749:.\BLEApplication.c **** //    UART_rx_wake_ClearInterrupt();    
 750:.\BLEApplication.c ****     UART_ClearRxInterruptSource(UART_INTR_RX_NOT_EMPTY);
 751:.\BLEApplication.c ****   
 752:.\BLEApplication.c **** }
 753:.\BLEApplication.c **** 
 754:.\BLEApplication.c **** /******************************************************************************
 755:.\BLEApplication.c **** * Function Name: SystemInitialization
 756:.\BLEApplication.c **** ***************************************************************************//**
 757:.\BLEApplication.c **** * 
 758:.\BLEApplication.c **** *  BLEÂçèËÆÆÊ†à„ÄÅÂ§ñËÆæÂàùÂßãÂåñ
 759:.\BLEApplication.c **** * 
 760:.\BLEApplication.c **** * \return
 761:.\BLEApplication.c **** *  None
ARM GAS  C:\Users\Helon\AppData\Local\Temp\ccVeYEL4.s 			page 21


 762:.\BLEApplication.c **** * 
 763:.\BLEApplication.c **** ******************************************************************************/
 764:.\BLEApplication.c **** void SystemInitialization(void)
 765:.\BLEApplication.c **** {
 766:.\BLEApplication.c **** //    ÊµÅÊéßÂºïËÑöÁöÑÂàùÂßãÂåñ
 767:.\BLEApplication.c ****     CTS_SetDriveMode(CTS_DM_STRONG);//ÊµÅÊéßÂºïËÑöËÆæÁΩÆ‰∏∫Êé®ÊåΩËæìÂá∫
 768:.\BLEApplication.c ****     CTS_Write(CTS_OFF);//ÊµÅÊéßÊòØÈ´òÁîµÂπ≥ÊúâÊïà
 769:.\BLEApplication.c ****     UART_rx_wake_SetDriveMode(UART_rx_wake_DM_RES_UP);//ËÆæÁΩÆRXËÑö‰∏∫ÂÜÖÈÉ®‰∏äÊãâ
 770:.\BLEApplication.c ****     UART_tx_SetDriveMode(UART_tx_DM_RES_UP);//ËÆæÁΩÆTX‰∏∫ÂÜÖÈÉ®‰∏äÊãâ
 771:.\BLEApplication.c **** //    uint16_t counter;
 772:.\BLEApplication.c ****     //Â≠òÊîæNotifyÂÄºÁöÑÊï∞ÁªÑÂàùÂßãÂåñ
 773:.\BLEApplication.c **** //    for(counter = 0; counter < 20; counter++)
 774:.\BLEApplication.c **** //    {
 775:.\BLEApplication.c **** //        buffer[counter] = counter;
 776:.\BLEApplication.c **** //    }
 777:.\BLEApplication.c **** //    ÂàùÂßãÂåñÂÜôËØ∑Ê±ÇÊï∞ÊçÆ
 778:.\BLEApplication.c ****     writeRequestData.attrHandle=CYBLE_TROUGHPUT_SERVICE_CUSTOM_CHARACTERISTIC_CLIENT_CHARACTERISTIC
 779:.\BLEApplication.c ****     writeRequestData.value=cccdNotifFlagSetStruct;
 780:.\BLEApplication.c **** //    ÂàùÂßãÂåñÂπøÊí≠Èó¥ÈöîÂíåÂπøÂëäË∂ÖÊó∂Êó∂Èó¥
 781:.\BLEApplication.c **** //    updateadvparam.advParam->advIntvMin=CYBLE_FAST_ADV_INT_MIN;
 782:.\BLEApplication.c **** //    updateadvparam.advParam->advIntvMax=CYBLE_FAST_ADV_INT_MAX;
 783:.\BLEApplication.c **** //    updateadvparam.advTo=CYBLE_FAST_ADV_TIMEOUT;
 784:.\BLEApplication.c **** //    ConfigUartInit();
 785:.\BLEApplication.c **** //    SetUartConfiguration(BAUD_9600);    
 786:.\BLEApplication.c ****     Timer_Init();
 787:.\BLEApplication.c ****     TimerInterrupt_StartEx(MyTimerIsr);
 788:.\BLEApplication.c ****     UART_Start();
 789:.\BLEApplication.c ****   //    UART_SCB_IRQ_StartEx(My_ISR_UART);   
 790:.\BLEApplication.c **** //    isr_UserButton_StartEx(MY_ISR_USERBUTTON);
 791:.\BLEApplication.c ****     LedInit();    
 792:.\BLEApplication.c ****     CyBle_Start(StackEventHandler);
 793:.\BLEApplication.c ****     CyBle_GapFixAuthPassKey(TRUE,PASSKEY);
 794:.\BLEApplication.c **** //    CyBle_ProcessEvents();
 795:.\BLEApplication.c **** }
 796:.\BLEApplication.c **** 
 797:.\BLEApplication.c **** /******************************************************************************
 798:.\BLEApplication.c **** * Function Name: ConfigUartInit
 799:.\BLEApplication.c **** ***************************************************************************//**
 800:.\BLEApplication.c **** * 
 801:.\BLEApplication.c **** *  UARTÈÖçÁΩÆÂàùÂßãÂåñ
 802:.\BLEApplication.c **** * 
 803:.\BLEApplication.c **** * \return
 804:.\BLEApplication.c **** *  None   
 805:.\BLEApplication.c **** * 
 806:.\BLEApplication.c **** ******************************************************************************/
 807:.\BLEApplication.c **** void ConfigUartInit(void)
 808:.\BLEApplication.c **** {   
 809:.\BLEApplication.c **** //    configUart.mode=UART_UART_MODE_STD;         /* mode: Standard */ 
 810:.\BLEApplication.c **** //    configUart.direction=UART_UART_TX_RX;       /* direction: RX + TX */ 
 811:.\BLEApplication.c **** //    configUart.dataBits=8;                      /* dataBits: 8 bits */
 812:.\BLEApplication.c **** //    configUart.parity=UART_UART_PARITY_NONE;    /* parity: None */
 813:.\BLEApplication.c **** //    configUart.stopBits=UART_UART_STOP_BITS_1;  /* stopBits: 1 bit */ 
 814:.\BLEApplication.c **** //    configUart.oversample=16;                   /* oversample: 16u */
 815:.\BLEApplication.c **** //    configUart.enableIrdaLowPower=0;            /* enableIrdaLowPower: disable */
 816:.\BLEApplication.c **** //    configUart.enableMedianFilter=1;            /* enableMedianFilter: enable */
 817:.\BLEApplication.c **** //    configUart.enableRetryNack=0;               /* enableRetryNack: disable */
 818:.\BLEApplication.c **** //    configUart.enableInvertedRx=0;              /* enableInvertedRx: disable */
ARM GAS  C:\Users\Helon\AppData\Local\Temp\ccVeYEL4.s 			page 22


 819:.\BLEApplication.c **** //    configUart.dropOnParityErr=0;               /* dropOnParityErr: disable */
 820:.\BLEApplication.c **** //    configUart.dropOnFrameErr=0;                /* dropOnFrameErr: disable */
 821:.\BLEApplication.c **** //    configUart.enableWake=0;                    /* enableWake: disable */
 822:.\BLEApplication.c **** //    configUart.rxBufferSize=UART_RX_BUFFER;   /* rxBufferSize: software buffer 10 bytes */
 823:.\BLEApplication.c **** //    configUart.rxBuffer=bufferRx;               /* rxBuffer: RX software buffer enable */ 
 824:.\BLEApplication.c **** //    configUart.txBufferSize=UART_TX_BUFFER;   /* txBufferSize: software buffer 10 bytes */
 825:.\BLEApplication.c **** //    configUart.txBuffer=bufferTx;               /* txBuffer: TX software buffer enable */
 826:.\BLEApplication.c **** //    configUart.enableMultiproc=0;               /* enableMultiproc: disable */
 827:.\BLEApplication.c **** //    configUart.multiprocAcceptAddr=0;           /* multiprocAcceptAddr: disable */ 
 828:.\BLEApplication.c **** //    configUart.multiprocAddr=0;                 /* multiprocAddr: N/A for this configuration */ 
 829:.\BLEApplication.c **** //    configUart.multiprocAddrMask=0;             /* multiprocAddrMask: N/A for this configuration 
 830:.\BLEApplication.c **** //    configUart.enableInterrupt=1;               /* enableInterrupt: enable to process software bu
 831:.\BLEApplication.c **** //    configUart.rxInterruptMask=UART_INTR_RX_NOT_EMPTY; /* rxInterruptMask: enable NOT_EMPTY for R
 832:.\BLEApplication.c **** //    configUart.rxTriggerLevel=0;               /* rxTriggerLevel: N/A for this configuration */ 
 833:.\BLEApplication.c **** //    configUart.txInterruptMask=0;              /* txInterruptMask: NOT_FULL is enabled when there
 834:.\BLEApplication.c **** //    configUart.txTriggerLevel=0;               /* txTriggerLevel: N/A for this configuration */ 
 835:.\BLEApplication.c **** }
 836:.\BLEApplication.c **** /******************************************************************************
 837:.\BLEApplication.c **** * Function Name: SetUartConfiguration
 838:.\BLEApplication.c **** ***************************************************************************//**
 839:.\BLEApplication.c **** * 
 840:.\BLEApplication.c **** *  ËÆæÁΩÆ‰∏≤Âè£ÈÖçÁΩÆ
 841:.\BLEApplication.c **** * \param  DIVIDER_CLOCK:ÈÖçÁΩÆÊ≥¢ÁâπÁéáÁöÑÊó∂ÈíüÂàÜÈ¢ëÔºå‰∏çÂêåÁöÑÈ¢ëÁéáÂàÜÈ¢ëÁ≥ªÁªü‰∏çÂêå„ÄÇ
 842:.\BLEApplication.c **** * \return
 843:.\BLEApplication.c **** *   CYRET_SUCCESS    //Successful
 844:.\BLEApplication.c **** *   CYRET_BAD_PARAM  //Uknowns operation mode - no actions 
 845:.\BLEApplication.c **** ******************************************************************************/
 846:.\BLEApplication.c **** void SetUartConfiguration(uint32_t DIVIDER_CLOCK) 
 847:.\BLEApplication.c **** {
 848:.\BLEApplication.c **** //    cystatus status = CYRET_SUCCESS; 
 849:.\BLEApplication.c **** //    UART_Stop();                    /* Disable component before configuration change */ 
 850:.\BLEApplication.c **** //    /* Change clock divider */
 851:.\BLEApplication.c **** //    UART_CLOCK_Stop();
 852:.\BLEApplication.c **** //    UART_CLOCK_SetFractionalDividerRegister(DIVIDER_CLOCK, 0u); 
 853:.\BLEApplication.c **** //    UART_CLOCK_Start();
 854:.\BLEApplication.c **** //    /* Configure to UART operation */ 
 855:.\BLEApplication.c **** //    UART_UartInit(&configUart);          
 856:.\BLEApplication.c **** //    UART_Start();                       /* Enable component after configuration change */     
 857:.\BLEApplication.c **** }
 858:.\BLEApplication.c **** 
 859:.\BLEApplication.c **** /******************************************************************************
 860:.\BLEApplication.c **** * Function Name: LedInit
 861:.\BLEApplication.c **** ***************************************************************************//**
 862:.\BLEApplication.c **** * 
 863:.\BLEApplication.c **** *  Áä∂ÊÄÅÁÅØÂàùÂßãÂåñ
 864:.\BLEApplication.c **** * 
 865:.\BLEApplication.c **** * \return
 866:.\BLEApplication.c **** *  None
 867:.\BLEApplication.c **** * 
 868:.\BLEApplication.c **** ******************************************************************************/
 869:.\BLEApplication.c **** void LedInit(void)
 870:.\BLEApplication.c **** {
 871:.\BLEApplication.c ****     Status_LED_SetDriveMode(Status_LED_DM_STRONG);
 872:.\BLEApplication.c ****     Connected_LED_SetDriveMode(Connected_LED_DM_STRONG);
 873:.\BLEApplication.c ****     Status_LED_Write(LED_OFF);
 874:.\BLEApplication.c ****     Connected_LED_Write(LED_OFF);
 875:.\BLEApplication.c **** }
ARM GAS  C:\Users\Helon\AppData\Local\Temp\ccVeYEL4.s 			page 23


 876:.\BLEApplication.c **** 
 877:.\BLEApplication.c **** /******************************************************************************
 878:.\BLEApplication.c **** * Function Name: Parser_UartData
 879:.\BLEApplication.c **** ***************************************************************************//**
 880:.\BLEApplication.c **** * 
 881:.\BLEApplication.c **** *  Ëß£ÊûêÊé•Êî∂Âà∞ÁöÑ‰∏≤Âè£Êï∞ÊçÆ
 882:.\BLEApplication.c **** * \param  SerialData:ÊåáÂêëcharÂûãÁöÑÊåáÈíà
 883:.\BLEApplication.c **** * \return
 884:.\BLEApplication.c **** *  None
 885:.\BLEApplication.c **** * 
 886:.\BLEApplication.c **** ******************************************************************************/
 887:.\BLEApplication.c **** void Parser_UartData(const char* SerialData)
 888:.\BLEApplication.c **** {
 889:.\BLEApplication.c ****     if(NULL==SerialData)
 890:.\BLEApplication.c ****         return;
 891:.\BLEApplication.c ****     uint8_t At_Command_Idex=0,i=0;
 892:.\BLEApplication.c ****     uint8_t idx=0;    
 893:.\BLEApplication.c ****     int16_t AdvMin,AdvMax;
 894:.\BLEApplication.c ****     char8 Name[27]={0};
 895:.\BLEApplication.c ****     char AdvData[31]={0};
 896:.\BLEApplication.c ****     char StrAdvData[62]={0};
 897:.\BLEApplication.c ****     char StrAdvDataLength[2]={0};
 898:.\BLEApplication.c ****     char AdvDataLength=0;
 899:.\BLEApplication.c ****     char AdvParamArray[2]={0};
 900:.\BLEApplication.c ****     char AdvParam=0;
 901:.\BLEApplication.c ****     uint8 DeviceNameLen[1]={0};
 902:.\BLEApplication.c ****     uint32 WriteDataToFlash=0;
 903:.\BLEApplication.c **** //    volatile uint8_t test=0;
 904:.\BLEApplication.c **** //    double connintv=0;
 905:.\BLEApplication.c **** //    uint16 supervisionTO=0;
 906:.\BLEApplication.c ****     CYBLE_API_RESULT_T API_RESULT=0;
 907:.\BLEApplication.c ****     uint8_t STAUS_T=0;
 908:.\BLEApplication.c ****     CYBLE_GATTC_FIND_INFO_REQ_T range;    
 909:.\BLEApplication.c ****     CYBLE_GAPP_DISC_DATA_T advDiscData;
 910:.\BLEApplication.c ****     CYBLE_GAP_BONDED_DEV_ADDR_LIST_T bondedDevList;
 911:.\BLEApplication.c **** //    CYBLE_CONN_HANDLE_T  connHandle; 
 912:.\BLEApplication.c **** //     uint8 bdHandle=0;
 913:.\BLEApplication.c ****     At_Command_Idex=Command_Identify(SerialData);
 914:.\BLEApplication.c ****     switch(At_Command_Idex)
 915:.\BLEApplication.c ****     {
 916:.\BLEApplication.c **** //        ÊµãËØï‰∏≤Âè£ÊòØÂê¶Ê≠£Â∏∏----‰∏ª‰ªéÊúâÊïà
 917:.\BLEApplication.c ****         case _AT:
 918:.\BLEApplication.c **** //            printf("OK\r\n");
 919:.\BLEApplication.c ****             printf("AT+OK\r\n");
 920:.\BLEApplication.c ****         break;
 921:.\BLEApplication.c **** //        ËΩØÂ§ç‰Ωç----‰∏ª‰ªéÊúâÊïà
 922:.\BLEApplication.c ****         case RESET:
 923:.\BLEApplication.c ****             if(SerialData[9]=='1')
 924:.\BLEApplication.c ****             {
 925:.\BLEApplication.c ****                 printf("AT+OK\r\n");
 926:.\BLEApplication.c ****                 while((UART_SpiUartGetTxBufferSize() + UART_GET_TX_FIFO_SR_VALID) != 0);//Á≠âÂæÖ‰∏≤
 927:.\BLEApplication.c ****                 CySoftwareReset();
 928:.\BLEApplication.c ****             }
 929:.\BLEApplication.c ****             else
 930:.\BLEApplication.c ****             {
 931:.\BLEApplication.c ****                 printf("AT+ERR=5\r\n");//Ë°®Á§∫Ê≤°ÊúâËØ•ATÂëΩ‰ª§     
 932:.\BLEApplication.c ****             }
ARM GAS  C:\Users\Helon\AppData\Local\Temp\ccVeYEL4.s 			page 24


 933:.\BLEApplication.c ****         break;
 934:.\BLEApplication.c ****         case REFAC:
 935:.\BLEApplication.c ****         break;
 936:.\BLEApplication.c **** //         ÂΩìÂâçÂõ∫‰ª∂ÁâàÊú¨ÁöÑÊü•ËØ¢
 937:.\BLEApplication.c ****         case VERSION:
 938:.\BLEApplication.c ****             if(SerialData[11]=='?')
 939:.\BLEApplication.c ****             #ifdef RELEASE
 940:.\BLEApplication.c ****                 printf("+VERSION=CY-B01_V2.0.5\r\n");
 941:.\BLEApplication.c ****             #else
 942:.\BLEApplication.c ****                 printf("+VERSION=CY-B01_V1.1.2\r\n");
 943:.\BLEApplication.c ****             #endif
 944:.\BLEApplication.c ****             else
 945:.\BLEApplication.c ****             {
 946:.\BLEApplication.c ****                 printf("AT+ERR=5\r\n");//Ë°®Á§∫Ê≤°ÊúâËØ•ATÂëΩ‰ª§     
 947:.\BLEApplication.c ****             }
 948:.\BLEApplication.c ****         break;
 949:.\BLEApplication.c **** //            ÊöÇÊó∂Êó†ÊïàÔºåÂõ∫ÂÆö‰∏∫9600ÁöÑÊ≥¢ÁâπÁéá
 950:.\BLEApplication.c ****         case BAUD:
 951:.\BLEApplication.c ****             printf("AT+ERR=5\r\n");//Ë°®Á§∫Ê≤°ÊúâËØ•ATÂëΩ‰ª§ 
 952:.\BLEApplication.c **** //            idx=SerialData[8];             
 953:.\BLEApplication.c **** //            UartBuadRate_Handler(idx);
 954:.\BLEApplication.c ****         break;
 955:.\BLEApplication.c **** //            MACÂú∞ÂùÄÊü•ËØ¢----‰∏ª‰ªéÊúâÊïà
 956:.\BLEApplication.c ****         case LADDR:
 957:.\BLEApplication.c ****             idx=SerialData[9]; 
 958:.\BLEApplication.c ****             if('?'==idx)
 959:.\BLEApplication.c ****             {
 960:.\BLEApplication.c ****                 CyBle_GetDeviceAddress(&DeviceAddr);
 961:.\BLEApplication.c ****                 printf("+LADDR=%02X%02X%02X%02X%02X%02X\r\n",                  
 962:.\BLEApplication.c ****                     DeviceAddr.bdAddr[5],
 963:.\BLEApplication.c ****                     DeviceAddr.bdAddr[4],
 964:.\BLEApplication.c ****                     DeviceAddr.bdAddr[3],
 965:.\BLEApplication.c ****                     DeviceAddr.bdAddr[2],
 966:.\BLEApplication.c ****                     DeviceAddr.bdAddr[1],
 967:.\BLEApplication.c ****                     DeviceAddr.bdAddr[0]                             
 968:.\BLEApplication.c ****                   );
 969:.\BLEApplication.c ****             }
 970:.\BLEApplication.c ****             else
 971:.\BLEApplication.c ****             {
 972:.\BLEApplication.c ****                 printf("AT+ERR=5\r\n");//Ë°®Á§∫Ê≤°ÊúâËØ•ATÂëΩ‰ª§ 
 973:.\BLEApplication.c ****             }
 974:.\BLEApplication.c ****         break;
 975:.\BLEApplication.c **** //                ËÆæÂ§áÂêçÊü•ËØ¢Âèä‰øÆÊîπ---‰ªéÊú∫ÊúâÊïà
 976:.\BLEApplication.c ****         case NAME:
 977:.\BLEApplication.c ****              idx=SerialData[8];
 978:.\BLEApplication.c ****              if(Peripheral==Role)
 979:.\BLEApplication.c ****              {
 980:.\BLEApplication.c ****                 switch(idx)
 981:.\BLEApplication.c ****                 {
 982:.\BLEApplication.c ****                     case '?':
 983:.\BLEApplication.c ****                         CyBle_GapGetLocalName(Name);
 984:.\BLEApplication.c ****                         printf("+NAME=%s\r\n",Name);
 985:.\BLEApplication.c **** //                        free(Name);
 986:.\BLEApplication.c ****                     break;
 987:.\BLEApplication.c ****                     case '<':
 988:.\BLEApplication.c ****                         if((strchr((char*)(SerialData+9),'>')-(SerialData+9))>23)
 989:.\BLEApplication.c ****                         {
ARM GAS  C:\Users\Helon\AppData\Local\Temp\ccVeYEL4.s 			page 25


 990:.\BLEApplication.c ****                             printf("AT+ERR=6\r\n");//Ë°®Á§∫ËÆæÁΩÆÁöÑËÆæÂ§áÂêçÂ≠óËøáÈïø
 991:.\BLEApplication.c ****                             return;
 992:.\BLEApplication.c ****                         }
 993:.\BLEApplication.c ****                         if((CYBLE_STATE_CONNECTED!=CyBle_GetState()))
 994:.\BLEApplication.c ****                         {
 995:.\BLEApplication.c ****                             CyBle_GappStopAdvertisement();
 996:.\BLEApplication.c ****                             memset(Name,0,sizeof(char8)*27);
 997:.\BLEApplication.c ****                             DeviceNameLen[0]=Buffer_Length-11;
 998:.\BLEApplication.c ****                             memcpy(Name,RX_BUFFER+9,DeviceNameLen[0]);
 999:.\BLEApplication.c ****                             WriteUserSFlashRow(1,DeviceNameLen,1,0x00);//Â∞ÜËÆæÂ§áÂêçÂ≠óÈïøÂ∫¶ÂÜôÂÖ
1000:.\BLEApplication.c ****                             WriteUserSFlashRow(2,Name,DeviceNameLen[0],0x00);//Â∞ÜËÆæÂ§áÂêçÂÜôÂÖ•SF
1001:.\BLEApplication.c ****                             API_RESULT=CyBle_GapSetLocalName(Name);                            
1002:.\BLEApplication.c ****                             if(API_RESULT==CYBLE_ERROR_OK)
1003:.\BLEApplication.c ****                             {
1004:.\BLEApplication.c ****                                 printf("AT+OK\r\n");
1005:.\BLEApplication.c **** //                                printf("AT+ NAME=<%s>\r\n",Name);
1006:.\BLEApplication.c **** //                                printf("OK\r\n");
1007:.\BLEApplication.c ****                             }
1008:.\BLEApplication.c ****                             else
1009:.\BLEApplication.c ****                             {
1010:.\BLEApplication.c ****                                 printf("AT+ERR=2\r\n");//Ë°®Á§∫ÂëΩ‰ª§ËÆæÁΩÆÂ§±Ë¥•
1011:.\BLEApplication.c ****                             }
1012:.\BLEApplication.c **** //                            free(Name);
1013:.\BLEApplication.c **** //                            CyBle_GappStartAdvertisement(CYBLE_ADVERTISING_FAST);
1014:.\BLEApplication.c ****                         }
1015:.\BLEApplication.c ****                         else
1016:.\BLEApplication.c ****                         {
1017:.\BLEApplication.c ****                                 printf("AT+ERR=3\r\n");//Ë°®Á§∫ÂΩìÂâçÁä∂ÊÄÅ‰∏çÊîØÊåÅËØ•ÂëΩ‰ª§
1018:.\BLEApplication.c **** //                            printf("+NAME=<INVALID>\r\n"); 
1019:.\BLEApplication.c ****                         }
1020:.\BLEApplication.c ****                     break;
1021:.\BLEApplication.c ****                     default:
1022:.\BLEApplication.c ****                         printf("AT+ERR=5\r\n");//Ë°®Á§∫Ê≤°ÊúâËØ•ATÂëΩ‰ª§ 
1023:.\BLEApplication.c ****                     break;
1024:.\BLEApplication.c ****                 }                   
1025:.\BLEApplication.c ****              }
1026:.\BLEApplication.c ****              else
1027:.\BLEApplication.c ****              {
1028:.\BLEApplication.c **** //                printf("+NAME=<INVALID>\r\n"); 
1029:.\BLEApplication.c ****                 printf("AT+ERR=4\r\n");//Ë°®Á§∫ÂΩìÂâçËßíËâ≤‰∏çÊîØÊåÅËØ•ÂëΩ‰ª§ 
1030:.\BLEApplication.c ****              }
1031:.\BLEApplication.c ****                 
1032:.\BLEApplication.c ****         break;
1033:.\BLEApplication.c ****         case CPIN:
1034:.\BLEApplication.c ****         break;
1035:.\BLEApplication.c **** //            ÂèëÂ∞ÑÂäüÁéáÊü•ËØ¢Âèä‰øÆÊîπ----‰ªéÊú∫ÊúâÊïà
1036:.\BLEApplication.c ****         case TXP:
1037:.\BLEApplication.c ****             idx=SerialData[7];
1038:.\BLEApplication.c ****             if(Role==Peripheral)
1039:.\BLEApplication.c ****                 TxPower_Handler(idx);
1040:.\BLEApplication.c ****              else
1041:.\BLEApplication.c ****             {
1042:.\BLEApplication.c **** //                printf("+TXP=<INVALID>\r\n"); 
1043:.\BLEApplication.c ****                 printf("AT+ERR=4\r\n");//Ë°®Á§∫ÂΩìÂâçËßíËâ≤‰∏çÊîØÊåÅËØ•ÂëΩ‰ª§ 
1044:.\BLEApplication.c ****             }
1045:.\BLEApplication.c ****         break;
1046:.\BLEApplication.c **** //            ÂπøÊí≠Êï∞ÊçÆÁöÑ‰øÆÊîπÂèäÊü•ËØ¢----‰ªéÊú∫ÊúâÊïà
ARM GAS  C:\Users\Helon\AppData\Local\Temp\ccVeYEL4.s 			page 26


1047:.\BLEApplication.c ****         case ADVD:
1048:.\BLEApplication.c ****             idx=SerialData[8];
1049:.\BLEApplication.c ****             if(Peripheral==Role)
1050:.\BLEApplication.c ****             {
1051:.\BLEApplication.c ****                 switch(idx)
1052:.\BLEApplication.c ****                 {
1053:.\BLEApplication.c ****                     case '<':
1054:.\BLEApplication.c ****                         if(CYBLE_STATE_ADVERTISING!=CyBle_GetState())
1055:.\BLEApplication.c ****                         {
1056:.\BLEApplication.c ****                             if((strchr((char*)(SerialData+9),'>')-(SerialData+9))>31)
1057:.\BLEApplication.c ****                             {
1058:.\BLEApplication.c ****                                 printf("AT+ERR=9\r\n");//Ë°®Á§∫ËÆæÁΩÆÁöÑÂπøÊí≠Êï∞ÊçÆÈïøÂ∫¶ËøáÈïø
1059:.\BLEApplication.c ****                                 return;
1060:.\BLEApplication.c ****                             }
1061:.\BLEApplication.c ****                             memset(advDiscData.advData,0,CYBLE_GAP_MAX_ADV_DATA_LEN);
1062:.\BLEApplication.c ****                             memcpy(StrAdvDataLength,SerialData+9,2);
1063:.\BLEApplication.c ****                             StrToHex(&AdvDataLength,StrAdvDataLength,1);
1064:.\BLEApplication.c ****                             advDiscData.advDataLen=AdvDataLength;
1065:.\BLEApplication.c ****                             memcpy(StrAdvData,SerialData+12,AdvDataLength*2);
1066:.\BLEApplication.c ****                             StrToHex(AdvData,StrAdvData,sizeof(StrAdvData)/sizeof(char)/2);
1067:.\BLEApplication.c ****                             memcpy(advDiscData.advData,AdvData,advDiscData.advDataLen);
1068:.\BLEApplication.c ****                             API_RESULT=CyBle_GapUpdateAdvData(&advDiscData,NULL);
1069:.\BLEApplication.c ****                             if(CYBLE_ERROR_OK==API_RESULT)
1070:.\BLEApplication.c ****                             {
1071:.\BLEApplication.c ****     //                            printf("+ADVD=<SUCCESS>\r\n");
1072:.\BLEApplication.c ****                                 cyBle_discoveryModeInfo.advData->advDataLen=AdvDataLength;
1073:.\BLEApplication.c ****                                 memcpy(cyBle_discoveryModeInfo.advData->advData,AdvData,AdvDataLeng
1074:.\BLEApplication.c ****                                 printf("AT+OK\r\n");
1075:.\BLEApplication.c ****                             }
1076:.\BLEApplication.c ****                             else
1077:.\BLEApplication.c ****                             {
1078:.\BLEApplication.c ****                                 printf("AT+ERR=2\r\n");//Ë°®Á§∫ÂëΩ‰ª§ËÆæÁΩÆÂ§±Ë¥•
1079:.\BLEApplication.c ****                             }
1080:.\BLEApplication.c ****                         }
1081:.\BLEApplication.c ****                         else
1082:.\BLEApplication.c ****                         {
1083:.\BLEApplication.c ****                             printf("AT+ERR=3\r\n");//Ë°®Á§∫ÂΩìÂâçÁä∂ÊÄÅ‰∏çÊîØÊåÅËØ•ÂëΩ‰ª§
1084:.\BLEApplication.c ****                         }
1085:.\BLEApplication.c ****                     break;                        
1086:.\BLEApplication.c ****                     case '?':
1087:.\BLEApplication.c ****                         if(CYBLE_STATE_ADVERTISING==CyBle_GetState())
1088:.\BLEApplication.c ****                         {
1089:.\BLEApplication.c ****                             printf("+ADVD=");
1090:.\BLEApplication.c ****                             for(i=0;i<cyBle_discoveryModeInfo.advData->advDataLen;i++)
1091:.\BLEApplication.c ****                             {
1092:.\BLEApplication.c ****                                 printf("%02X",cyBle_discoveryModeInfo.advData->advData[i]);
1093:.\BLEApplication.c ****                             }
1094:.\BLEApplication.c ****                             printf("\r\n");
1095:.\BLEApplication.c ****                         }
1096:.\BLEApplication.c ****                         else
1097:.\BLEApplication.c ****                         {
1098:.\BLEApplication.c ****                             printf("AT+ERR=3\r\n");//Ë°®Á§∫ÂΩìÂâçÁä∂ÊÄÅ‰∏çÊîØÊåÅËØ•ÂëΩ‰ª§
1099:.\BLEApplication.c ****                         }
1100:.\BLEApplication.c ****                         
1101:.\BLEApplication.c ****                     break;
1102:.\BLEApplication.c ****                     default:
1103:.\BLEApplication.c ****                         printf("AT+ERR=5\r\n");//Ë°®Á§∫Ê≤°ÊúâËØ•ATÂëΩ‰ª§ 
ARM GAS  C:\Users\Helon\AppData\Local\Temp\ccVeYEL4.s 			page 27


1104:.\BLEApplication.c ****                     break;
1105:.\BLEApplication.c ****                 }                
1106:.\BLEApplication.c ****             }                
1107:.\BLEApplication.c ****             else
1108:.\BLEApplication.c ****             {
1109:.\BLEApplication.c **** //                printf("+ADVD=<INVALID>\r\n");
1110:.\BLEApplication.c ****                 printf("AT+ERR=4\r\n");//Ë°®Á§∫ÂΩìÂâçËßíËâ≤‰∏çÊîØÊåÅËØ•ÂëΩ‰ª§
1111:.\BLEApplication.c ****             }
1112:.\BLEApplication.c ****         break;
1113:.\BLEApplication.c **** //            ÂπøÊí≠Èó¥ÈöîÁöÑ‰øÆÊîπÂèäÊü•ËØ¢----‰ªéÊú∫ÊúâÊïà
1114:.\BLEApplication.c ****         case ADVI:            
1115:.\BLEApplication.c ****             if(Role==Peripheral)
1116:.\BLEApplication.c ****             {
1117:.\BLEApplication.c ****                 idx=SerialData[8];  
1118:.\BLEApplication.c ****                 if((CYBLE_STATE_CONNECTED!=CyBle_GetState()))
1119:.\BLEApplication.c ****                 {
1120:.\BLEApplication.c ****                     switch(idx)
1121:.\BLEApplication.c ****                     {
1122:.\BLEApplication.c ****                         case '?':
1123:.\BLEApplication.c ****                         AdvMin=(cyBle_discoveryModeInfo.advParam->advIntvMin)*0.625;
1124:.\BLEApplication.c ****                         AdvMax=(cyBle_discoveryModeInfo.advParam->advIntvMax)*0.625;               
1125:.\BLEApplication.c ****                         printf("+ADVI=%hdms,%hdms,%hus\r\n",AdvMin,
1126:.\BLEApplication.c ****                         AdvMax,cyBle_discoveryModeInfo.advTo);
1127:.\BLEApplication.c ****                         while((UART_SpiUartGetTxBufferSize() + UART_GET_TX_FIFO_SR_VALID) != 0);//Á
1128:.\BLEApplication.c ****                         break;
1129:.\BLEApplication.c ****                         case '<':
1130:.\BLEApplication.c ****     //                    Âè™ÊúâÂÅúÊ≠¢ÂπøÊí≠‰∫Ü‰øÆÊîπÊâçÊúâÊïà
1131:.\BLEApplication.c ****                         if(CYBLE_STATE_ADVERTISING!=CyBle_GetState())
1132:.\BLEApplication.c ****                         {
1133:.\BLEApplication.c ****              //              Ëé∑ÂèñAdvMinÂÄº
1134:.\BLEApplication.c ****                             AdvParamArray[0]=SerialData[9];
1135:.\BLEApplication.c ****                             AdvParamArray[1]=SerialData[10];
1136:.\BLEApplication.c ****                             StrToHex(&AdvParam,AdvParamArray,1);
1137:.\BLEApplication.c ****                             cyBle_discoveryModeInfo.advParam->advIntvMin=AdvParam;
1138:.\BLEApplication.c ****         //                    Ëé∑ÂèñAdvMaxÂÄº
1139:.\BLEApplication.c ****                             AdvParamArray[0]=SerialData[12];
1140:.\BLEApplication.c ****                             AdvParamArray[1]=SerialData[13];
1141:.\BLEApplication.c ****                             StrToHex(&AdvParam,AdvParamArray,1);
1142:.\BLEApplication.c ****                             cyBle_discoveryModeInfo.advParam->advIntvMax=AdvParam;
1143:.\BLEApplication.c ****         //                      Ëé∑ÂèñAdvToÂÄº
1144:.\BLEApplication.c ****                             AdvParamArray[0]=SerialData[15];
1145:.\BLEApplication.c ****                             AdvParamArray[1]=SerialData[16];
1146:.\BLEApplication.c ****                             StrToHex(&AdvParam,AdvParamArray,1);
1147:.\BLEApplication.c ****                             cyBle_discoveryModeInfo.advTo=AdvParam;
1148:.\BLEApplication.c ****                             printf("AT+OK\r\n");
1149:.\BLEApplication.c **** //                            printf("%s",SerialData);
1150:.\BLEApplication.c **** //                            printf("OK\r\n");
1151:.\BLEApplication.c ****                         }
1152:.\BLEApplication.c ****                         else
1153:.\BLEApplication.c ****                         {
1154:.\BLEApplication.c **** //                             printf("+ADVI=<INVALID>\r\n");
1155:.\BLEApplication.c ****                             printf("AT+ERR=3\r\n");//Ë°®Á§∫ÂΩìÂâçÁä∂ÊÄÅ‰∏çÊîØÊåÅËØ•ÂëΩ‰ª§
1156:.\BLEApplication.c ****                         }
1157:.\BLEApplication.c ****                         break;
1158:.\BLEApplication.c ****                         default:
1159:.\BLEApplication.c ****                             printf("AT+ERR=5\r\n");//Ë°®Á§∫Ê≤°ÊúâËØ•ATÂëΩ‰ª§ 
1160:.\BLEApplication.c ****                         break;
ARM GAS  C:\Users\Helon\AppData\Local\Temp\ccVeYEL4.s 			page 28


1161:.\BLEApplication.c ****                     }  
1162:.\BLEApplication.c ****                 }
1163:.\BLEApplication.c ****                 else
1164:.\BLEApplication.c ****                 {
1165:.\BLEApplication.c ****                     printf("AT+ERR=3\r\n");//Ë°®Á§∫ÂΩìÂâçÁä∂ÊÄÅ‰∏çÊîØÊåÅËØ•ÂëΩ‰ª§
1166:.\BLEApplication.c ****                 }
1167:.\BLEApplication.c ****                                             
1168:.\BLEApplication.c ****             }
1169:.\BLEApplication.c ****             else
1170:.\BLEApplication.c ****             {
1171:.\BLEApplication.c **** //                printf("+ADVI=<INVALID>\r\n");
1172:.\BLEApplication.c ****                 printf("AT+ERR=4\r\n");//Ë°®Á§∫ÂΩìÂâçËßíËâ≤‰∏çÊîØÊåÅËØ•ÂëΩ‰ª§
1173:.\BLEApplication.c ****             }
1174:.\BLEApplication.c ****             
1175:.\BLEApplication.c ****         break;
1176:.\BLEApplication.c **** //            ËøûÊé•Èó¥ÈöîÁöÑ‰øÆÊîπÂèäÊü•ËØ¢----‰∏ªÊú∫ÊúâÊïàÔºåÊü•ËØ¢Âàô‰∏ª‰ªéÊúâÊïà
1177:.\BLEApplication.c ****         case CONNI:  
1178:.\BLEApplication.c ****             idx=SerialData[9];
1179:.\BLEApplication.c ****             switch(idx)
1180:.\BLEApplication.c ****             {
1181:.\BLEApplication.c ****                 case '?':
1182:.\BLEApplication.c ****                 if(CYBLE_STATE_CONNECTED==CyBle_GetState())
1183:.\BLEApplication.c ****                 {
1184:.\BLEApplication.c **** //                    connintv=(ConnParam.connIntv)*1.25;
1185:.\BLEApplication.c **** //                    supervisionTO=(ConnParam.supervisionTO)*10;
1186:.\BLEApplication.c ****                     printf("+CONNI=%04X,%04X,%04X\r\n",ConnParam.connIntv,
1187:.\BLEApplication.c ****                     ConnParam.supervisionTO,ConnParam.connLatency);
1188:.\BLEApplication.c ****                 }
1189:.\BLEApplication.c ****                 else
1190:.\BLEApplication.c ****                 {
1191:.\BLEApplication.c **** //                    printf("+CONNI=<INVALID>\r\n");
1192:.\BLEApplication.c ****                     printf("AT+ERR=3\r\n");//Ë°®Á§∫ÂΩìÂâçÁä∂ÊÄÅ‰∏çÊîØÊåÅËØ•ÂëΩ‰ª§
1193:.\BLEApplication.c ****                 }
1194:.\BLEApplication.c ****                 break;
1195:.\BLEApplication.c ****                 case '<':
1196:.\BLEApplication.c **** //                Âè™Êúâ‰∏ªÊú∫ÂèØ‰ª•Êõ¥ÊîπËøûÊé•ÂèÇÊï∞
1197:.\BLEApplication.c ****                 if(Role==Central)
1198:.\BLEApplication.c ****                 {
1199:.\BLEApplication.c ****                     if(CYBLE_STATE_CONNECTED==CyBle_GetState())
1200:.\BLEApplication.c ****                     {
1201:.\BLEApplication.c ****                         //                    Ëé∑ÂèñÊúÄÂ∞èËøûÊé•Èó¥Èöî
1202:.\BLEApplication.c ****                         AdvParamArray[0]=SerialData[10];
1203:.\BLEApplication.c ****                         AdvParamArray[1]=SerialData[11];
1204:.\BLEApplication.c ****                         StrToHex(&AdvParam,AdvParamArray,1);
1205:.\BLEApplication.c ****                         connParam.connIntvMin=AdvParam;
1206:.\BLEApplication.c ****     //                    Ëé∑ÂèñÊúÄÂ§ßËøûÊé•Èó¥Èöî                    
1207:.\BLEApplication.c ****                         AdvParamArray[0]=SerialData[13];
1208:.\BLEApplication.c ****                         AdvParamArray[1]=SerialData[14];
1209:.\BLEApplication.c ****                         StrToHex(&AdvParam,AdvParamArray,1);
1210:.\BLEApplication.c ****                         connParam.connIntvMax=AdvParam;
1211:.\BLEApplication.c ****     //                    ÂèëËµ∑ËøûÊé•Èó¥ÈöîÊõ¥Êñ∞ËØ∑Ê±Ç
1212:.\BLEApplication.c ****                         API_RESULT=CyBle_GapcConnectionParamUpdateRequest(cyBle_connHandle.bdHandle
1213:.\BLEApplication.c ****                         if(CYBLE_ERROR_OK==API_RESULT)
1214:.\BLEApplication.c ****                         {
1215:.\BLEApplication.c ****                             printf("AT+OK\r\n");
1216:.\BLEApplication.c ****     //                        printf("%s",SerialData);
1217:.\BLEApplication.c ****     //                        printf("OK\r\n");
ARM GAS  C:\Users\Helon\AppData\Local\Temp\ccVeYEL4.s 			page 29


1218:.\BLEApplication.c ****                         }
1219:.\BLEApplication.c ****                         else
1220:.\BLEApplication.c ****                         {
1221:.\BLEApplication.c ****     //                        printf("+CONNI=<FAIL>\r\n");
1222:.\BLEApplication.c ****                             printf("AT+ERR=2\r\n");//Ë°®Á§∫ÂëΩ‰ª§ËÆæÁΩÆÂ§±Ë¥•
1223:.\BLEApplication.c ****                         }
1224:.\BLEApplication.c ****                         
1225:.\BLEApplication.c ****                     }
1226:.\BLEApplication.c ****                     else
1227:.\BLEApplication.c ****                     {
1228:.\BLEApplication.c ****                         printf("AT+ERR=3\r\n");//Ë°®Á§∫ÂΩìÂâçÁä∂ÊÄÅ‰∏çÊîØÊåÅËØ•ÂëΩ‰ª§
1229:.\BLEApplication.c ****                     }
1230:.\BLEApplication.c **** 
1231:.\BLEApplication.c ****                 }
1232:.\BLEApplication.c ****                 else
1233:.\BLEApplication.c ****                 {
1234:.\BLEApplication.c **** //                    printf("+CONNI=<INVALID>\r\n");
1235:.\BLEApplication.c ****                     printf("AT+ERR=4\r\n");//Ë°®Á§∫ÂΩìÂâçËßíËâ≤‰∏çÊîØÊåÅËØ•ÂëΩ‰ª§
1236:.\BLEApplication.c ****                 }
1237:.\BLEApplication.c ****                 break;
1238:.\BLEApplication.c ****                 default:
1239:.\BLEApplication.c ****                     printf("AT+ERR=5\r\n");//Ë°®Á§∫Ê≤°ÊúâËØ•ATÂëΩ‰ª§ 
1240:.\BLEApplication.c ****                 break;
1241:.\BLEApplication.c ****             }
1242:.\BLEApplication.c ****             
1243:.\BLEApplication.c ****         break;
1244:.\BLEApplication.c **** //              ‰∏ª‰ªé‰∏Ä‰ΩìÂàáÊç¢ÂëΩ‰ª§-----‰∏ª‰ªéÊúâÊïà
1245:.\BLEApplication.c ****         case ROLE:
1246:.\BLEApplication.c ****             idx=SerialData[8];
1247:.\BLEApplication.c ****             switch(idx)
1248:.\BLEApplication.c ****             {
1249:.\BLEApplication.c ****                 case '?':
1250:.\BLEApplication.c ****                     if(Peripheral==Role)
1251:.\BLEApplication.c ****                     {
1252:.\BLEApplication.c ****                         printf("+ROLE=0\r\n");
1253:.\BLEApplication.c **** //                        printf("+ROLE=<Peripheral>\r\n");
1254:.\BLEApplication.c ****                     }
1255:.\BLEApplication.c ****                     else
1256:.\BLEApplication.c ****                     {   
1257:.\BLEApplication.c ****                         printf("+ROLE=1\r\n");
1258:.\BLEApplication.c **** //                        printf("+ROLE=<Central>\r\n");
1259:.\BLEApplication.c ****                     }
1260:.\BLEApplication.c ****                 break;
1261:.\BLEApplication.c **** //                    0Ôºö‰ªéÊú∫(Slave)
1262:.\BLEApplication.c ****                 case '0':
1263:.\BLEApplication.c ****                     if(CYBLE_STATE_CONNECTED!=CyBle_GetState())
1264:.\BLEApplication.c ****                     {
1265:.\BLEApplication.c ****                         WriteDataToFlash=Peripheral;//ÊääÂΩìÂâçÁöÑÂÄºÂÜôÂÖ•Flash‰∏≠,Áî®‰∫éÂ§ç‰ΩçÊó∂
1266:.\BLEApplication.c ****                         if(USER_SFLASH_WRITE_SUCCESSFUL==WriteUserSFlashRow(0,&WriteDataToFlash,1,0
1267:.\BLEApplication.c ****                         {
1268:.\BLEApplication.c ****                             //ÂÅúÊ≠¢Êâ´Êèè,Ê≥®ÈáäÊéâÂπøÊí≠ÊâçÊ≠£Â∏∏ÔºåÂê¶ÂàôÂè™ÊúâÂø´ÂπøÊí≠Ê≤°ÊúâÊÖ
1269:.\BLEApplication.c **** //                            CyBle_GapcStopScan();
1270:.\BLEApplication.c ****                             //ÂºÄÂßãÂπøÊí≠
1271:.\BLEApplication.c ****                             CyBle_GappStartAdvertisement(CYBLE_ADVERTISING_FAST);
1272:.\BLEApplication.c ****                             Role=Peripheral;
1273:.\BLEApplication.c ****                             printf("AT+OK\r\n");
1274:.\BLEApplication.c **** //                            printf("+ROLE:<Peripheral>\r\n");
ARM GAS  C:\Users\Helon\AppData\Local\Temp\ccVeYEL4.s 			page 30


1275:.\BLEApplication.c **** //                            printf("OK\r\n");
1276:.\BLEApplication.c ****                         }  
1277:.\BLEApplication.c ****                         
1278:.\BLEApplication.c ****                     } 
1279:.\BLEApplication.c ****                     else
1280:.\BLEApplication.c ****                     {
1281:.\BLEApplication.c ****                         printf("AT+ERR=3\r\n");//Ë°®Á§∫ÂΩìÂâçÁä∂ÊÄÅ‰∏çÊîØÊåÅËØ•ÂëΩ‰ª§
1282:.\BLEApplication.c ****                     }
1283:.\BLEApplication.c ****                 break;
1284:.\BLEApplication.c **** //                     1Ôºö‰∏ªÊú∫(Master)
1285:.\BLEApplication.c ****                 case '1':
1286:.\BLEApplication.c ****                     if(CYBLE_STATE_CONNECTED!=CyBle_GetState())
1287:.\BLEApplication.c ****                     {
1288:.\BLEApplication.c ****                         WriteDataToFlash=Central;
1289:.\BLEApplication.c ****                         if(USER_SFLASH_WRITE_SUCCESSFUL==WriteUserSFlashRow(0,&WriteDataToFlash,1,0
1290:.\BLEApplication.c ****                         {
1291:.\BLEApplication.c **** //                        ÂÅúÊ≠¢ÂπøÊí≠
1292:.\BLEApplication.c **** //                            CyBle_GappStopAdvertisement();
1293:.\BLEApplication.c **** //                        ÂºÄÂßãÊâ´Êèè
1294:.\BLEApplication.c ****                             CyBle_GapcStartScan(CYBLE_SCANNING_FAST);
1295:.\BLEApplication.c ****                             Role=Central;
1296:.\BLEApplication.c ****                             printf("AT+OK\r\n");
1297:.\BLEApplication.c **** //                            printf("+ROLE:<Central>\r\n");
1298:.\BLEApplication.c **** //                            printf("OK\r\n");
1299:.\BLEApplication.c ****                         }
1300:.\BLEApplication.c **** 
1301:.\BLEApplication.c ****                     }
1302:.\BLEApplication.c ****                     else
1303:.\BLEApplication.c ****                     {
1304:.\BLEApplication.c ****                         printf("AT+ERR=3\r\n");//Ë°®Á§∫ÂΩìÂâçÁä∂ÊÄÅ‰∏çÊîØÊåÅËØ•ÂëΩ‰ª§
1305:.\BLEApplication.c ****                     }
1306:.\BLEApplication.c ****                     
1307:.\BLEApplication.c ****                 break;
1308:.\BLEApplication.c ****                 default:
1309:.\BLEApplication.c ****                     printf("AT+ERR=5\r\n");//Ë°®Á§∫Ê≤°ÊúâËØ•ATÂëΩ‰ª§ 
1310:.\BLEApplication.c ****                 break;                    
1311:.\BLEApplication.c ****             }
1312:.\BLEApplication.c ****         break;
1313:.\BLEApplication.c **** ////            Êü•ËØ¢ÊâÄÊúâÁöÑÁâπÂæÅÊèèËø∞Á¨¶----‰∏ªÊú∫ÊúâÊïà
1314:.\BLEApplication.c ****         case DISALLCHAR:
1315:.\BLEApplication.c ****             idx=SerialData[14];
1316:.\BLEApplication.c ****             if((Role==Central)&&(idx='1'))
1317:.\BLEApplication.c ****             {
1318:.\BLEApplication.c ****                 range.startHandle=0x0001;//ÂºÄÂßãÂè•ÊüÑ‰∏çËÉΩ‰ªé0ÂºÄÂßãÔºåÂè™ËÉΩ‰ªé1ÂºÄÂßã
1319:.\BLEApplication.c ****                 range.endHandle=0xFFFF;       
1320:.\BLEApplication.c ****                 API_RESULT=CyBle_GattcDiscoverAllCharacteristicDescriptors(cyBle_connHandle,&range)
1321:.\BLEApplication.c **** //                CyBle_GattcDiscoverAllCharacteristics(cyBle_connHandle,range);
1322:.\BLEApplication.c ****             }
1323:.\BLEApplication.c ****             else
1324:.\BLEApplication.c ****             {
1325:.\BLEApplication.c ****                 printf("AT+ERR=4\r\n");//Ë°®Á§∫ÂΩìÂâçËßíËâ≤‰∏çÊîØÊåÅËØ•ÂëΩ‰ª§
1326:.\BLEApplication.c **** //                printf("+DISALLCHAR=<INVALID>\r\n");
1327:.\BLEApplication.c ****             }
1328:.\BLEApplication.c ****         break;
1329:.\BLEApplication.c **** //            Êâ´ÊèèÂë®Âõ¥ÁöÑBLEËÆæÂ§á----‰∏ªÊú∫ÊúâÊïà
1330:.\BLEApplication.c ****         case SCAN:
1331:.\BLEApplication.c ****             if(Role==Central)
ARM GAS  C:\Users\Helon\AppData\Local\Temp\ccVeYEL4.s 			page 31


1332:.\BLEApplication.c ****             {
1333:.\BLEApplication.c ****                 if(SerialData[8]=='1')
1334:.\BLEApplication.c ****                 {
1335:.\BLEApplication.c ****                     if(CYBLE_STATE_CONNECTED!=CyBle_GetState())
1336:.\BLEApplication.c ****                     {
1337:.\BLEApplication.c ****                         ScanDeviceInfoInit();
1338:.\BLEApplication.c ****                         if(CYBLE_ERROR_OK==CyBle_GapcStartScan(CYBLE_SCANNING_FAST))
1339:.\BLEApplication.c ****                         {
1340:.\BLEApplication.c ****                             printf("AT+OK\r\n");  
1341:.\BLEApplication.c ****                         }
1342:.\BLEApplication.c ****                         else
1343:.\BLEApplication.c ****                         {
1344:.\BLEApplication.c ****                             printf("AT+ERR=2\r\n");//Ë°®Á§∫ÂëΩ‰ª§ËÆæÁΩÆÂ§±Ë¥•
1345:.\BLEApplication.c ****                         }
1346:.\BLEApplication.c ****                     }
1347:.\BLEApplication.c ****                     else
1348:.\BLEApplication.c ****                     {
1349:.\BLEApplication.c ****                         printf("AT+ERR=3\r\n");//Ë°®Á§∫ÂΩìÂâçÁä∂ÊÄÅ‰∏çÊîØÊåÅËØ•ÂëΩ‰ª§
1350:.\BLEApplication.c ****                     }
1351:.\BLEApplication.c ****                     
1352:.\BLEApplication.c ****                 }
1353:.\BLEApplication.c ****                 else if(SerialData[8]=='0')
1354:.\BLEApplication.c ****                 {
1355:.\BLEApplication.c ****                     if(CYBLE_STATE_SCANNING==CyBle_GetState())
1356:.\BLEApplication.c ****                     {
1357:.\BLEApplication.c **** //                        ScanDeviceInfoInit();
1358:.\BLEApplication.c ****                         CyBle_GapcStopScan();                                   
1359:.\BLEApplication.c ****                         STOP_SCAN_FLAG=TRUE;
1360:.\BLEApplication.c ****                         printf("AT+OK\r\n"); 
1361:.\BLEApplication.c ****                     }
1362:.\BLEApplication.c ****                     else
1363:.\BLEApplication.c ****                     {
1364:.\BLEApplication.c ****                         printf("AT+ERR=3\r\n");//Ë°®Á§∫ÂΩìÂâçÁä∂ÊÄÅ‰∏çÊîØÊåÅËØ•ÂëΩ‰ª§
1365:.\BLEApplication.c ****                     }
1366:.\BLEApplication.c ****                 }
1367:.\BLEApplication.c ****                 else if(SerialData[8]=='?')
1368:.\BLEApplication.c ****                 {
1369:.\BLEApplication.c ****                     if(0==DeviceCount)
1370:.\BLEApplication.c ****                     {
1371:.\BLEApplication.c ****                         printf("AT+ERR=10\r\n");//Ë°®Á§∫ÂΩìÂâçËøòÊ≤°ÊúâÊâ´ÊèèÂà∞Âë®ËæπÁöÑBLEËÆæÂ§á
1372:.\BLEApplication.c ****                         return;
1373:.\BLEApplication.c ****                     }
1374:.\BLEApplication.c ****                     for(i=0;i<DeviceCount;i++)
1375:.\BLEApplication.c ****                     {
1376:.\BLEApplication.c ****                         printf("+INQ_SCAN=%d,%02X%02X%02X%02X%02X%02X\r\n",
1377:.\BLEApplication.c ****                         DeviceInfo[i].idx,
1378:.\BLEApplication.c ****                         DeviceInfo[i].DeviceList.bdAddr[5],
1379:.\BLEApplication.c ****                         DeviceInfo[i].DeviceList.bdAddr[4],
1380:.\BLEApplication.c ****                         DeviceInfo[i].DeviceList.bdAddr[3],
1381:.\BLEApplication.c ****                         DeviceInfo[i].DeviceList.bdAddr[2],
1382:.\BLEApplication.c ****                         DeviceInfo[i].DeviceList.bdAddr[1],
1383:.\BLEApplication.c ****                         DeviceInfo[i].DeviceList.bdAddr[0]                             
1384:.\BLEApplication.c ****                       );
1385:.\BLEApplication.c ****     //                  while((UART_SpiUartGetTxBufferSize() + UART_GET_TX_FIFO_SR_VALID) != 0);//Á
1386:.\BLEApplication.c ****                     }
1387:.\BLEApplication.c ****                 }
1388:.\BLEApplication.c ****                 else
ARM GAS  C:\Users\Helon\AppData\Local\Temp\ccVeYEL4.s 			page 32


1389:.\BLEApplication.c ****                 {
1390:.\BLEApplication.c ****                     printf("AT+ERR=5\r\n");//Ë°®Á§∫Ê≤°ÊúâËØ•ATÂëΩ‰ª§ 
1391:.\BLEApplication.c ****                 }
1392:.\BLEApplication.c ****             }
1393:.\BLEApplication.c ****             else
1394:.\BLEApplication.c ****             {
1395:.\BLEApplication.c **** //                printf("+SCAN=<INVALID>\r\n");
1396:.\BLEApplication.c ****                 printf("AT+ERR=4\r\n");//Ë°®Á§∫ÂΩìÂâçËßíËâ≤‰∏çÊîØÊåÅËØ•ÂëΩ‰ª§
1397:.\BLEApplication.c ****             }
1398:.\BLEApplication.c ****         break;
1399:.\BLEApplication.c **** //            ËøûÊé•ÈÄâ‰∏≠ÁöÑBLEËÆæÂ§á-----‰∏ªÊú∫ÊúâÊïà
1400:.\BLEApplication.c ****         case CONNT:
1401:.\BLEApplication.c ****             if(Role==Central)
1402:.\BLEApplication.c ****             {
1403:.\BLEApplication.c ****                 idx=SerialData[9];
1404:.\BLEApplication.c ****                 Connect_Device(idx);      
1405:.\BLEApplication.c ****             }
1406:.\BLEApplication.c ****             else
1407:.\BLEApplication.c ****             {
1408:.\BLEApplication.c **** //                printf("+CONNT=<INVALID>\r\n");
1409:.\BLEApplication.c ****                 printf("AT+ERR=4\r\n");//Ë°®Á§∫ÂΩìÂâçËßíËâ≤‰∏çÊîØÊåÅËØ•ÂëΩ‰ª§
1410:.\BLEApplication.c ****             }
1411:.\BLEApplication.c ****         break;
1412:.\BLEApplication.c **** //            Êñ≠ÂºÄËøûÊé•----‰∏ª‰ªéÊúâÊïà
1413:.\BLEApplication.c ****         case DISCONN:
1414:.\BLEApplication.c ****             if(CYBLE_STATE_CONNECTED==CyBle_GetState())
1415:.\BLEApplication.c ****             {
1416:.\BLEApplication.c ****                 idx=SerialData[11];
1417:.\BLEApplication.c ****                 if(Role==Central)
1418:.\BLEApplication.c ****                 {
1419:.\BLEApplication.c ****                     switch(idx)
1420:.\BLEApplication.c ****                     {
1421:.\BLEApplication.c ****                         case '1':
1422:.\BLEApplication.c ****                             API_RESULT=CyBle_GapDisconnect(cyBle_connHandle.bdHandle);
1423:.\BLEApplication.c ****                             if(CYBLE_ERROR_OK!=API_RESULT)  
1424:.\BLEApplication.c ****                             {
1425:.\BLEApplication.c ****                                 printf("AT+ERR=%d,0x%02X\r\n",idx-0x30,API_RESULT);                
1426:.\BLEApplication.c ****                             }
1427:.\BLEApplication.c ****                             else
1428:.\BLEApplication.c ****                             {
1429:.\BLEApplication.c ****                                 //Êñ≠ÂºÄËøûÊé•ÂêéÔºåÂ∫îËØ•Ê∏ÖÁ©∫ËøûÊé•ÂàóË°®ÂØπÂ∫îÁöÑÂÜÖÂÆπ
1430:.\BLEApplication.c ****                                 for(i=0;i<Conn_Or_Disconn_Info.Connected_Count;i++)
1431:.\BLEApplication.c ****                                 {
1432:.\BLEApplication.c ****                                     if(1==Conn_Or_Disconn_Info.Connect_Idx[i])
1433:.\BLEApplication.c ****                                     {
1434:.\BLEApplication.c ****                                         Conn_Or_Disconn_Info.Connected_Count--;
1435:.\BLEApplication.c ****                                         memset(Conn_Or_Disconn_Info.DeviceAddr[i].bdAddr,0,6);
1436:.\BLEApplication.c ****                                         Conn_Or_Disconn_Info.Connect_Idx[i]=0;
1437:.\BLEApplication.c ****                                         Conn_Or_Disconn_Info.Disconn_Idx[0]=idx-0x30;
1438:.\BLEApplication.c ****                                         Conn_or_Disconn_Idx=idx-0x30;
1439:.\BLEApplication.c ****                                         break;
1440:.\BLEApplication.c ****                                     }
1441:.\BLEApplication.c ****                                 }
1442:.\BLEApplication.c ****                                 printf("AT+OK\r\n");
1443:.\BLEApplication.c ****                             }
1444:.\BLEApplication.c ****                         break;
1445:.\BLEApplication.c ****                         case '2':
ARM GAS  C:\Users\Helon\AppData\Local\Temp\ccVeYEL4.s 			page 33


1446:.\BLEApplication.c ****                             API_RESULT=CyBle_GapDisconnect(cyBle_connHandle.bdHandle);
1447:.\BLEApplication.c ****                             if(CYBLE_ERROR_OK!=API_RESULT)  
1448:.\BLEApplication.c ****                             {
1449:.\BLEApplication.c ****                                 printf("AT+ERR=%d,0x%02X\r\n",idx-0x30,API_RESULT);                
1450:.\BLEApplication.c ****                             }
1451:.\BLEApplication.c ****                             else
1452:.\BLEApplication.c ****                             {
1453:.\BLEApplication.c ****                                 //Êñ≠ÂºÄËøûÊé•ÂêéÔºåÂ∫îËØ•Ê∏ÖÁ©∫ËøûÊé•ÂàóË°®ÂØπÂ∫îÁöÑÂÜÖÂÆπ
1454:.\BLEApplication.c ****                                 for(i=0;i<Conn_Or_Disconn_Info.Connected_Count;i++)
1455:.\BLEApplication.c ****                                 {
1456:.\BLEApplication.c ****                                     if(1==Conn_Or_Disconn_Info.Connect_Idx[i])
1457:.\BLEApplication.c ****                                     {
1458:.\BLEApplication.c ****                                         Conn_Or_Disconn_Info.Connected_Count--;
1459:.\BLEApplication.c ****                                         memset(Conn_Or_Disconn_Info.DeviceAddr[i].bdAddr,0,6);
1460:.\BLEApplication.c ****                                         Conn_Or_Disconn_Info.Connect_Idx[i]=0;
1461:.\BLEApplication.c ****                                         Conn_Or_Disconn_Info.Disconn_Idx[0]=idx-0x30;
1462:.\BLEApplication.c ****                                         Conn_or_Disconn_Idx=idx-0x30;
1463:.\BLEApplication.c ****                                         break;
1464:.\BLEApplication.c ****                                     }
1465:.\BLEApplication.c ****                                 }
1466:.\BLEApplication.c ****                                 printf("AT+OK\r\n");
1467:.\BLEApplication.c ****                             }
1468:.\BLEApplication.c ****                         break;
1469:.\BLEApplication.c ****                         case '3':
1470:.\BLEApplication.c ****                             API_RESULT=CyBle_GapDisconnect(cyBle_connHandle.bdHandle);
1471:.\BLEApplication.c ****                             if(CYBLE_ERROR_OK!=API_RESULT)  
1472:.\BLEApplication.c ****                             {
1473:.\BLEApplication.c ****                                 printf("AT+ERR=%d,0x%02X\r\n",idx-0x30,API_RESULT);                
1474:.\BLEApplication.c ****                             }
1475:.\BLEApplication.c ****                             else
1476:.\BLEApplication.c ****                             {
1477:.\BLEApplication.c ****                                 //Êñ≠ÂºÄËøûÊé•ÂêéÔºåÂ∫îËØ•Ê∏ÖÁ©∫ËøûÊé•ÂàóË°®ÂØπÂ∫îÁöÑÂÜÖÂÆπ
1478:.\BLEApplication.c ****                                 for(i=0;i<Conn_Or_Disconn_Info.Connected_Count;i++)
1479:.\BLEApplication.c ****                                 {
1480:.\BLEApplication.c ****                                     if(1==Conn_Or_Disconn_Info.Connect_Idx[i])
1481:.\BLEApplication.c ****                                     {
1482:.\BLEApplication.c ****                                         Conn_Or_Disconn_Info.Connected_Count--;
1483:.\BLEApplication.c ****                                         memset(Conn_Or_Disconn_Info.DeviceAddr[i].bdAddr,0,6);
1484:.\BLEApplication.c ****                                         Conn_Or_Disconn_Info.Connect_Idx[i]=0;
1485:.\BLEApplication.c ****                                         Conn_Or_Disconn_Info.Disconn_Idx[0]=idx-0x30;
1486:.\BLEApplication.c ****                                         Conn_or_Disconn_Idx=idx-0x30;
1487:.\BLEApplication.c ****                                         break;
1488:.\BLEApplication.c ****                                     }
1489:.\BLEApplication.c ****                                 }
1490:.\BLEApplication.c ****                                 printf("AT+OK\r\n");
1491:.\BLEApplication.c ****                             }
1492:.\BLEApplication.c ****                         break;
1493:.\BLEApplication.c ****                         case '4':
1494:.\BLEApplication.c ****                             API_RESULT=CyBle_GapDisconnect(cyBle_connHandle.bdHandle);
1495:.\BLEApplication.c ****                             if(CYBLE_ERROR_OK!=API_RESULT)  
1496:.\BLEApplication.c ****                             {
1497:.\BLEApplication.c ****                                 printf("AT+ERR=%d,0x%02X\r\n",idx-0x30,API_RESULT);                
1498:.\BLEApplication.c ****                             }
1499:.\BLEApplication.c ****                             else
1500:.\BLEApplication.c ****                             {
1501:.\BLEApplication.c ****                                 //Êñ≠ÂºÄËøûÊé•ÂêéÔºåÂ∫îËØ•Ê∏ÖÁ©∫ËøûÊé•ÂàóË°®ÂØπÂ∫îÁöÑÂÜÖÂÆπ
1502:.\BLEApplication.c ****                                 for(i=0;i<Conn_Or_Disconn_Info.Connected_Count;i++)
ARM GAS  C:\Users\Helon\AppData\Local\Temp\ccVeYEL4.s 			page 34


1503:.\BLEApplication.c ****                                 {
1504:.\BLEApplication.c ****                                     if(1==Conn_Or_Disconn_Info.Connect_Idx[i])
1505:.\BLEApplication.c ****                                     {
1506:.\BLEApplication.c ****                                         Conn_Or_Disconn_Info.Connected_Count--;
1507:.\BLEApplication.c ****                                         memset(Conn_Or_Disconn_Info.DeviceAddr[i].bdAddr,0,6);
1508:.\BLEApplication.c ****                                         Conn_Or_Disconn_Info.Connect_Idx[i]=0;
1509:.\BLEApplication.c ****                                         Conn_Or_Disconn_Info.Disconn_Idx[0]=idx-0x30;
1510:.\BLEApplication.c ****                                         Conn_or_Disconn_Idx=idx-0x30;
1511:.\BLEApplication.c ****                                         break;
1512:.\BLEApplication.c ****                                     }
1513:.\BLEApplication.c ****                                 }
1514:.\BLEApplication.c ****                                 printf("AT+OK\r\n");
1515:.\BLEApplication.c ****                             }
1516:.\BLEApplication.c ****                         break;  
1517:.\BLEApplication.c ****                         default:
1518:.\BLEApplication.c ****                             printf("AT+ERR=5\r\n");//Ë°®Á§∫Ê≤°ÊúâËØ•ATÂëΩ‰ª§ 
1519:.\BLEApplication.c ****                         break;
1520:.\BLEApplication.c ****                     }
1521:.\BLEApplication.c ****                 }
1522:.\BLEApplication.c ****                 else
1523:.\BLEApplication.c ****                 {
1524:.\BLEApplication.c ****                     if(idx=='1')
1525:.\BLEApplication.c ****                     {                        
1526:.\BLEApplication.c ****                         API_RESULT=CyBle_GapDisconnect(cyBle_connHandle.bdHandle);
1527:.\BLEApplication.c ****                         if(CYBLE_ERROR_OK!=API_RESULT)  
1528:.\BLEApplication.c ****                         {
1529:.\BLEApplication.c ****                             printf("AT+ERR=0x%02X\r\n",API_RESULT);                    
1530:.\BLEApplication.c ****                         }
1531:.\BLEApplication.c ****                     }
1532:.\BLEApplication.c ****                     else
1533:.\BLEApplication.c ****                     {
1534:.\BLEApplication.c ****                         printf("AT+ERR=5\r\n");//Ë°®Á§∫Ê≤°ÊúâËØ•ATÂëΩ‰ª§
1535:.\BLEApplication.c ****                     }
1536:.\BLEApplication.c ****                 }
1537:.\BLEApplication.c ****             }
1538:.\BLEApplication.c ****             else
1539:.\BLEApplication.c ****             {
1540:.\BLEApplication.c ****                 printf("AT+ERR=3\r\n");//Ë°®Á§∫ÂΩìÂâçÁä∂ÊÄÅ‰∏çÊîØÊåÅËØ•ÂëΩ‰ª§
1541:.\BLEApplication.c ****             }
1542:.\BLEApplication.c ****             
1543:.\BLEApplication.c ****         break;
1544:.\BLEApplication.c ****         case LOGIN:
1545:.\BLEApplication.c ****         break;
1546:.\BLEApplication.c ****         case TX:
1547:.\BLEApplication.c ****         break;
1548:.\BLEApplication.c **** //            ‰∏ªÊú∫Êåá‰ª§ËØªÂèñ‰ªéÊú∫ÁöÑRSSI----‰∏ª‰ªéÊú∫ÊúâÊïà
1549:.\BLEApplication.c ****         case RSSI:
1550:.\BLEApplication.c ****             if(CYBLE_STATE_CONNECTED==CyBle_GetState())
1551:.\BLEApplication.c ****             {
1552:.\BLEApplication.c ****                 idx=SerialData[8];
1553:.\BLEApplication.c ****                 if(idx=='?')
1554:.\BLEApplication.c ****                 {                    
1555:.\BLEApplication.c ****                      printf("+RSSI=%ddbm\r\n",CyBle_GetRssi());
1556:.\BLEApplication.c ****                 }                    
1557:.\BLEApplication.c ****                 else
1558:.\BLEApplication.c ****                 {
1559:.\BLEApplication.c ****                     printf("AT+ERR=5\r\n");//Ë°®Á§∫Ê≤°ÊúâËØ•ATÂëΩ‰ª§
ARM GAS  C:\Users\Helon\AppData\Local\Temp\ccVeYEL4.s 			page 35


1560:.\BLEApplication.c ****                 }
1561:.\BLEApplication.c ****             }
1562:.\BLEApplication.c ****             else
1563:.\BLEApplication.c ****             {
1564:.\BLEApplication.c ****                printf("AT+ERR=3\r\n");//Ë°®Á§∫ÂΩìÂâçÁä∂ÊÄÅ‰∏çÊîØÊåÅËØ•ÂëΩ‰ª§ 
1565:.\BLEApplication.c ****             }
1566:.\BLEApplication.c ****         break;     
1567:.\BLEApplication.c **** //            ÈÄè‰º†ÈÄüÁéáÊµãËØï----‰∏ªÊúâÊïà
1568:.\BLEApplication.c ****         case SPEED:
1569:.\BLEApplication.c ****             idx=SerialData[9];
1570:.\BLEApplication.c ****             if('?'==idx)
1571:.\BLEApplication.c ****             {
1572:.\BLEApplication.c ****                 printf("%ld\r\n",testCount);
1573:.\BLEApplication.c ****                 testCount=0;
1574:.\BLEApplication.c ****             }
1575:.\BLEApplication.c ****             else
1576:.\BLEApplication.c ****             {
1577:.\BLEApplication.c ****                printf("AT+ERR=5\r\n");//Ë°®Á§∫Ê≤°ÊúâËØ•ATÂëΩ‰ª§ 
1578:.\BLEApplication.c ****             }
1579:.\BLEApplication.c **** //            if(CYBLE_STATE_CONNECTED==CyBle_GetState()&&(Central==Role))//ÂΩì‰∏î‰ªÖÂΩìÊòØËøûÊé•Áä
1580:.\BLEApplication.c **** //            {
1581:.\BLEApplication.c **** //                idx=SerialData[9];
1582:.\BLEApplication.c **** ////                MTU_REQ_FLAG=TRUE;                
1583:.\BLEApplication.c **** //                if('?'==idx)
1584:.\BLEApplication.c **** //                {                           
1585:.\BLEApplication.c **** //                    printf("Test Start\r\n");
1586:.\BLEApplication.c **** //                    Timer_Enable();
1587:.\BLEApplication.c **** //                    //‰∏ªÊú∫ÂèëÈÄÅÁöÑMTU exchange request
1588:.\BLEApplication.c **** ////                    if(MTU_REQ_FLAG^FALSE)
1589:.\BLEApplication.c **** ////                    {
1590:.\BLEApplication.c **** ////                        TroughtTest_Flag=TURE;                        
1591:.\BLEApplication.c **** ////                        MTU_REQ_FLAG=FALSE;
1592:.\BLEApplication.c **** ////                        API_RESULT=CyBle_GattcExchangeMtuReq(cyBle_connHandle, CYBLE_GATT_MTU);
1593:.\BLEApplication.c **** //////                        printf("GattcExchangeMtuReq is %d\r\n",API_RESULT);
1594:.\BLEApplication.c **** ////                        break;
1595:.\BLEApplication.c **** ////                    }
1596:.\BLEApplication.c **** ////                    else
1597:.\BLEApplication.c **** ////                    {
1598:.\BLEApplication.c **** //////                        TroughtTest_Flag=TURE;
1599:.\BLEApplication.c **** //////                        charNotificationEnabled = TURE;
1600:.\BLEApplication.c **** ////                        totalByteCounter=0;
1601:.\BLEApplication.c **** //////                        UART_UartPutString("Calculating throughput. Please wait...\n\r");
1602:.\BLEApplication.c **** //////                        Timer_Enable();
1603:.\BLEApplication.c **** ////                        writeRequestData.value.val[0]=0x01;
1604:.\BLEApplication.c **** ////                        writeRequestData.attrHandle=CYBLE_TROUGHPUT_SERVICE_SPEEDTEST_CHAR_HAND
1605:.\BLEApplication.c **** ////                        API_RESULT=CyBle_GattcWriteCharacteristicValue(cyBle_connHandle, &write
1606:.\BLEApplication.c **** ////                        if(CYBLE_ERROR_OK==API_RESULT)
1607:.\BLEApplication.c **** ////                        {
1608:.\BLEApplication.c **** ////                            CyBle_ProcessEvents();
1609:.\BLEApplication.c **** ////                        }                       
1610:.\BLEApplication.c **** ////                        printf("CyBle_GattcWriteCharacteristicDescriptors is %d\r\n",API_RESULT
1611:.\BLEApplication.c **** ////                    }
1612:.\BLEApplication.c **** //                }    
1613:.\BLEApplication.c **** ////            break;
1614:.\BLEApplication.c **** //            }
1615:.\BLEApplication.c **** //            else
1616:.\BLEApplication.c **** //            {                
ARM GAS  C:\Users\Helon\AppData\Local\Temp\ccVeYEL4.s 			page 36


1617:.\BLEApplication.c **** //            }
1618:.\BLEApplication.c ****         break;
1619:.\BLEApplication.c **** //            ‰ΩøËÉΩNotifyÂ±ûÊÄßÁöÑÁâπÂæÅÂÄº-----‰∏ªÊú∫ÊúâÊïàÔºå‰ΩÜÊòØ‰ªéÊú∫‰πüÂèØ‰ª•ÊúâÊïàÂè™ÊòØ‰∏
1620:.\BLEApplication.c ****         case NOTIFY:
1621:.\BLEApplication.c ****             idx=SerialData[10];
1622:.\BLEApplication.c ****             if((CYBLE_STATE_CONNECTED==CyBle_GetState())&&(Central==Role))//‰∏ªÊú∫Ê®°Âºè‰∏ã‰∏îÊòØAT
1623:.\BLEApplication.c ****              {                  
1624:.\BLEApplication.c ****                 switch(idx)
1625:.\BLEApplication.c ****                 {
1626:.\BLEApplication.c **** //                    //ÂÖ≥Èó≠ÈÄè‰º†ÈÄöÈÅì,Âú®ÈÄè‰º†Ê®°Âºè‰∏ã‰∏ç‰ºöËøõÊù•ËøôÈáå
1627:.\BLEApplication.c ****                     case '0':
1628:.\BLEApplication.c **** //                        writeRequestData.value.val[0]=0x00;
1629:.\BLEApplication.c **** //                        writeRequestData.attrHandle=CYBLE_TROUGHPUT_SERVICE_CUSTOM_CHARACTERISTIC
1630:.\BLEApplication.c **** //                        API_RESULT=CyBle_GattcWriteCharacteristicValue(cyBle_connHandle, &writeRe
1631:.\BLEApplication.c **** //                        if(CYBLE_ERROR_OK==API_RESULT)
1632:.\BLEApplication.c **** //                        {
1633:.\BLEApplication.c ****                         CTS_Write(CTS_OFF);
1634:.\BLEApplication.c ****                         CommandMode=AT_COMMAND_MODE;
1635:.\BLEApplication.c ****                         printf("+MODE=AT_COMMAND_MODE\r\n");
1636:.\BLEApplication.c **** //                        }
1637:.\BLEApplication.c **** ////                        printf("CyBle_GattcWriteCharacteristicValue is %d\r\n",API_RESULT);
1638:.\BLEApplication.c ****                     break;
1639:.\BLEApplication.c **** //                    ÊâìÂºÄÈÄè‰º†ÈÄöÈÅì
1640:.\BLEApplication.c ****                     case '1':
1641:.\BLEApplication.c ****                         writeRequestData.value.val[0]=0x01;
1642:.\BLEApplication.c ****                         writeRequestData.attrHandle=CYBLE_TROUGHPUT_SERVICE_CUSTOM_CHARACTERISTIC_C
1643:.\BLEApplication.c ****                         API_RESULT=CyBle_GattcWriteWithoutResponse(cyBle_connHandle, &writeRequestD
1644:.\BLEApplication.c ****                         if(CYBLE_ERROR_OK==API_RESULT)
1645:.\BLEApplication.c ****                         {
1646:.\BLEApplication.c ****                             CommandMode=THROUGHT_MODE;
1647:.\BLEApplication.c ****                             CTS_Write(CTS_ON);
1648:.\BLEApplication.c ****                             printf("+MODE=THROUGHT_MODE\r\n");
1649:.\BLEApplication.c ****                         }
1650:.\BLEApplication.c **** //                        printf("CyBle_GattcWriteCharacteristicValue is %d\r\n",API_RESULT);
1651:.\BLEApplication.c ****                     break;
1652:.\BLEApplication.c ****                     case '?'://‰∏ªÊú∫Ê®°Âºè‰∏ãÔºåËÉΩÊé•Êî∂Âà∞ËØ•ÂëΩ‰ª§Âàô‰∏ÄÂÆöÊòØATÂëΩ‰ª§Ê®°Âºè
1653:.\BLEApplication.c ****                         printf("+MODE=AT_COMMAND_MODE\r\n");                       
1654:.\BLEApplication.c ****                     break;
1655:.\BLEApplication.c ****                     default:
1656:.\BLEApplication.c ****                         printf("AT+ERR=5\r\n");//Ë°®Á§∫Ê≤°ÊúâËØ•ATÂëΩ‰ª§
1657:.\BLEApplication.c ****                     break;
1658:.\BLEApplication.c **** //                        API_RESULT=CyBle_GattcReadCharacteristicValue(cyBle_connHandle,readReques
1659:.\BLEApplication.c **** //                        printf("CyBle_GattcReadCharacteristicDescriptors is %d\r\n",API_RESULT); 
1660:.\BLEApplication.c ****                         
1661:.\BLEApplication.c **** //                    break;
1662:.\BLEApplication.c ****                 }
1663:.\BLEApplication.c ****             }
1664:.\BLEApplication.c ****             else if((CYBLE_STATE_CONNECTED==CyBle_GetState())&&(Peripheral==Role))//‰ªéÊú∫Ê®°Âºè‰∏ã
1665:.\BLEApplication.c ****             {
1666:.\BLEApplication.c ****                 switch(idx)
1667:.\BLEApplication.c ****                 {
1668:.\BLEApplication.c ****                     case '0':
1669:.\BLEApplication.c ****                         CommandMode=AT_COMMAND_MODE;
1670:.\BLEApplication.c ****                         CTS_Write(CTS_OFF);
1671:.\BLEApplication.c ****                         printf("+MODE=AT_COMMAND_MODE\r\n");
1672:.\BLEApplication.c ****                     break;
1673:.\BLEApplication.c ****                     case '1'://‰ªéÊú∫Ê®°Âºè‰∏îATÂëΩ‰ª§Ê®°Âºè‰∏ãÔºåÊâìÂºÄ‰ªéÊú∫Áªô‰∏ªÊú∫ÁöÑÈÄè‰º†ÈÄö
ARM GAS  C:\Users\Helon\AppData\Local\Temp\ccVeYEL4.s 			page 37


1674:.\BLEApplication.c ****                         CommandMode=THROUGHT_MODE;
1675:.\BLEApplication.c ****                         CTS_Write(CTS_ON);
1676:.\BLEApplication.c ****                         printf("+MODE=THROUGHT_MODE\r\n");
1677:.\BLEApplication.c ****                     break;
1678:.\BLEApplication.c ****                     case '?'://‰ªéÊú∫Ê®°Âºè‰∏ãÔºåËÉΩÊé•Êî∂Âà∞ËØ•ÂëΩ‰ª§Âàô‰∏ÄÂÆöÊòØATÂëΩ‰ª§Ê®°Âºè
1679:.\BLEApplication.c ****                         printf("+MODE=AT_COMMAND_MODE\r\n");                       
1680:.\BLEApplication.c ****                     break;
1681:.\BLEApplication.c ****                     default:
1682:.\BLEApplication.c ****                         printf("AT+ERR=5\r\n");//Ë°®Á§∫Ê≤°ÊúâËØ•ATÂëΩ‰ª§
1683:.\BLEApplication.c ****                     break;
1684:.\BLEApplication.c **** 
1685:.\BLEApplication.c ****                 }
1686:.\BLEApplication.c **** //                printf("+NOTIFY=<INVALID>\r\n");
1687:.\BLEApplication.c ****             }
1688:.\BLEApplication.c ****             else
1689:.\BLEApplication.c ****             {
1690:.\BLEApplication.c **** //                printf("+NOTIFY=<INVALID>\r\n");
1691:.\BLEApplication.c ****                 printf("AT+ERR=3\r\n");//Ë°®Á§∫ÂΩìÂâçÁä∂ÊÄÅ‰∏çÊîØÊåÅËØ•ÂëΩ‰ª§
1692:.\BLEApplication.c ****             }
1693:.\BLEApplication.c ****         break;
1694:.\BLEApplication.c **** //            ÂΩìÂâçBLEËÆæÂ§áÁä∂ÊÄÅÊü•ËØ¢----‰∏ª‰ªéÊúâÊïà
1695:.\BLEApplication.c ****         case STAUS:
1696:.\BLEApplication.c ****             idx=SerialData[9];            
1697:.\BLEApplication.c ****             if(idx=='?')
1698:.\BLEApplication.c ****             {
1699:.\BLEApplication.c ****                 STAUS_T=CyBle_GetState();
1700:.\BLEApplication.c ****                 switch(STAUS_T)
1701:.\BLEApplication.c ****                 {
1702:.\BLEApplication.c ****                     case 0:
1703:.\BLEApplication.c ****                             printf("+STAUS=0\r\n");
1704:.\BLEApplication.c **** //                        printf("+STAUS=<STATE_STOPPED>\r\n");
1705:.\BLEApplication.c ****                     break;
1706:.\BLEApplication.c ****                     case 1:
1707:.\BLEApplication.c ****                             printf("+STAUS=1\r\n");
1708:.\BLEApplication.c **** //                        printf("+STAUS=<STATE_INITIALIZING>\r\n");
1709:.\BLEApplication.c ****                     break;
1710:.\BLEApplication.c ****                     case 2:
1711:.\BLEApplication.c ****                             printf("+STAUS=2\r\n");
1712:.\BLEApplication.c **** //                        printf("+STAUS=<STATE_CONNECTED>\r\n");
1713:.\BLEApplication.c ****                     break;
1714:.\BLEApplication.c ****                     case 3:
1715:.\BLEApplication.c ****                             printf("+STAUS=3\r\n");
1716:.\BLEApplication.c **** //                        printf("+STAUS=<STATE_ADVERTISING>\r\n");
1717:.\BLEApplication.c ****                     break;
1718:.\BLEApplication.c ****                     case 4:
1719:.\BLEApplication.c ****                             printf("+STAUS=4\r\n");
1720:.\BLEApplication.c **** //                        printf("+STAUS=<STATE_SCANNING>\r\n");
1721:.\BLEApplication.c ****                     break;
1722:.\BLEApplication.c ****                     case 5:
1723:.\BLEApplication.c ****                             printf("+STAUS=5\r\n");
1724:.\BLEApplication.c **** //                        printf("+STAUS=<STATE_CONNECTING>\r\n");
1725:.\BLEApplication.c ****                     break;
1726:.\BLEApplication.c ****                     case 6:
1727:.\BLEApplication.c ****                             printf("+STAUS=6\r\n");
1728:.\BLEApplication.c **** //                        printf("+STAUS=<STATE_DISCONNECTED>\r\n");
1729:.\BLEApplication.c ****                     break;
1730:.\BLEApplication.c ****                     default:
ARM GAS  C:\Users\Helon\AppData\Local\Temp\ccVeYEL4.s 			page 38


1731:.\BLEApplication.c ****                     break;
1732:.\BLEApplication.c ****                 }
1733:.\BLEApplication.c ****             }
1734:.\BLEApplication.c ****             else
1735:.\BLEApplication.c ****             {
1736:.\BLEApplication.c ****                 printf("AT+ERR=5\r\n");//Ë°®Á§∫Ê≤°ÊúâËØ•ATÂëΩ‰ª§
1737:.\BLEApplication.c ****             }
1738:.\BLEApplication.c ****         break;
1739:.\BLEApplication.c **** //            ÂπøÊí≠ÁöÑÊâìÂºÄ‰∏éÂÖ≥Èó≠-----‰ªéÊú∫ÊúâÊïà
1740:.\BLEApplication.c ****         case ADVS:            
1741:.\BLEApplication.c ****             idx=SerialData[8];            
1742:.\BLEApplication.c ****             if(Role==Peripheral)
1743:.\BLEApplication.c ****             {
1744:.\BLEApplication.c ****                 if(CYBLE_STATE_CONNECTED!=CyBle_GetState())
1745:.\BLEApplication.c ****                 {
1746:.\BLEApplication.c ****                     if(idx=='1')//ÂºÄÂßãÂπøÊí≠
1747:.\BLEApplication.c ****                     {
1748:.\BLEApplication.c ****                         if(CYBLE_STATE_ADVERTISING!=CyBle_GetState())
1749:.\BLEApplication.c ****                         {
1750:.\BLEApplication.c ****                             API_RESULT=CyBle_GappStartAdvertisement(CYBLE_ADVERTISING_FAST);
1751:.\BLEApplication.c ****                             if(CYBLE_ERROR_OK==API_RESULT)
1752:.\BLEApplication.c ****                             {
1753:.\BLEApplication.c ****     //                           printf("+ADV=<ENABLE>\r\n");
1754:.\BLEApplication.c ****                                 printf("AT+OK\r\n");
1755:.\BLEApplication.c ****                             }
1756:.\BLEApplication.c ****                             else
1757:.\BLEApplication.c ****                             {
1758:.\BLEApplication.c ****                                 printf("AT+ERR=2\r\n");//Ë°®Á§∫ÂëΩ‰ª§ËÆæÁΩÆÂ§±Ë¥•
1759:.\BLEApplication.c ****                             }
1760:.\BLEApplication.c ****                         }
1761:.\BLEApplication.c ****                         else
1762:.\BLEApplication.c ****                         {
1763:.\BLEApplication.c ****     //                        printf("+ADV=<ENABLE>\r\n");
1764:.\BLEApplication.c ****                             printf("AT+ERR=3\r\n");//Ë°®Á§∫ÂΩìÂâçÁä∂ÊÄÅ‰∏çÊîØÊåÅËØ•ÂëΩ‰ª§
1765:.\BLEApplication.c ****                         }
1766:.\BLEApplication.c ****                     }
1767:.\BLEApplication.c ****                     else if(idx=='0')//ÂÖ≥Èó≠ÂπøÊí≠
1768:.\BLEApplication.c ****                     {
1769:.\BLEApplication.c ****                         if(CYBLE_STATE_ADVERTISING==CyBle_GetState())
1770:.\BLEApplication.c ****                         {
1771:.\BLEApplication.c ****                             CyBle_GappStopAdvertisement();
1772:.\BLEApplication.c ****                             printf("AT+OK\r\n");
1773:.\BLEApplication.c ****     //                        printf("+ADV=<DISABLE>\r\n");                        
1774:.\BLEApplication.c ****                         }
1775:.\BLEApplication.c ****                         else
1776:.\BLEApplication.c ****                         {
1777:.\BLEApplication.c ****     //                        printf("+ADV=<DISABLE>\r\n");  
1778:.\BLEApplication.c ****                             printf("AT+ERR=3\r\n");//Ë°®Á§∫ÂΩìÂâçÁä∂ÊÄÅ‰∏çÊîØÊåÅËØ•ÂëΩ‰ª§
1779:.\BLEApplication.c ****                         }
1780:.\BLEApplication.c ****                     }
1781:.\BLEApplication.c ****                     else
1782:.\BLEApplication.c ****                     {
1783:.\BLEApplication.c ****                         printf("AT+ERR=5\r\n");//Ë°®Á§∫Ê≤°ÊúâËØ•ATÂëΩ‰ª§
1784:.\BLEApplication.c ****                     }
1785:.\BLEApplication.c ****                 }
1786:.\BLEApplication.c ****                 else
1787:.\BLEApplication.c ****                 {
ARM GAS  C:\Users\Helon\AppData\Local\Temp\ccVeYEL4.s 			page 39


1788:.\BLEApplication.c ****     //                printf("+ADV=<INVALID>\r\n"); 
1789:.\BLEApplication.c ****                     printf("AT+ERR=3\r\n");//Ë°®Á§∫ÂΩìÂâçÁä∂ÊÄÅ‰∏çÊîØÊåÅËØ•ÂëΩ‰ª§
1790:.\BLEApplication.c ****                 }
1791:.\BLEApplication.c ****             }
1792:.\BLEApplication.c ****             else
1793:.\BLEApplication.c ****             {
1794:.\BLEApplication.c **** //                printf("+CONNT=<INVALID>\r\n");
1795:.\BLEApplication.c ****                 printf("AT+ERR=4\r\n");//Ë°®Á§∫ÂΩìÂâçËßíËâ≤‰∏çÊîØÊåÅËØ•ÂëΩ‰ª§
1796:.\BLEApplication.c ****             }
1797:.\BLEApplication.c ****         break;
1798:.\BLEApplication.c **** //            ËÆæÁΩÆËÆæÂ§áIOÁöÑËÉΩÂäõ-----‰∏ª‰ªéÊúâÊïà
1799:.\BLEApplication.c ****         case IOCAP:
1800:.\BLEApplication.c ****             idx=SerialData[9];
1801:.\BLEApplication.c ****             if(CYBLE_STATE_CONNECTED!=CyBle_GetState())
1802:.\BLEApplication.c ****             {                
1803:.\BLEApplication.c ****                 switch(idx)
1804:.\BLEApplication.c ****                 {
1805:.\BLEApplication.c ****                     case '0':
1806:.\BLEApplication.c ****                     API_RESULT=CyBle_GapSetIoCap(CYBLE_GAP_IOCAP_DISPLAY_ONLY);
1807:.\BLEApplication.c ****                     if(API_RESULT==CYBLE_ERROR_OK)
1808:.\BLEApplication.c ****                     {
1809:.\BLEApplication.c **** //                        printf("+IOCAP=<DISPLAY_ONLY>\r\n");
1810:.\BLEApplication.c ****                         printf("AT+OK\r\n");
1811:.\BLEApplication.c ****                         iocapability=CYBLE_GAP_IOCAP_DISPLAY_ONLY;
1812:.\BLEApplication.c ****                     }
1813:.\BLEApplication.c ****                     else
1814:.\BLEApplication.c ****                     {
1815:.\BLEApplication.c ****                         printf("AT+ERR=2\r\n");//Ë°®Á§∫ÂëΩ‰ª§ËÆæÁΩÆÂ§±Ë¥•
1816:.\BLEApplication.c ****                     }
1817:.\BLEApplication.c ****                     break;
1818:.\BLEApplication.c ****                     case '1':
1819:.\BLEApplication.c ****                     API_RESULT=CyBle_GapSetIoCap(CYBLE_GAP_IOCAP_DISPLAY_YESNO);
1820:.\BLEApplication.c ****                     if(API_RESULT==CYBLE_ERROR_OK)
1821:.\BLEApplication.c ****                     {
1822:.\BLEApplication.c **** //                        printf("+IOCAP=<DISPLAY_YESNO>\r\n");
1823:.\BLEApplication.c ****                         printf("AT+OK\r\n");
1824:.\BLEApplication.c ****                         iocapability=CYBLE_GAP_IOCAP_DISPLAY_YESNO;
1825:.\BLEApplication.c ****                     }
1826:.\BLEApplication.c ****                     else
1827:.\BLEApplication.c ****                     {
1828:.\BLEApplication.c ****                         printf("AT+ERR=2\r\n");//Ë°®Á§∫ÂëΩ‰ª§ËÆæÁΩÆÂ§±Ë¥•
1829:.\BLEApplication.c ****                     }
1830:.\BLEApplication.c ****                     break;
1831:.\BLEApplication.c ****                     case '2':
1832:.\BLEApplication.c ****                     API_RESULT=CyBle_GapSetIoCap(CYBLE_GAP_IOCAP_KEYBOARD_ONLY);
1833:.\BLEApplication.c ****                     if(API_RESULT==CYBLE_ERROR_OK)
1834:.\BLEApplication.c ****                     {
1835:.\BLEApplication.c **** //                        printf("+IOCAP=<KEYBOARD_ONLY>\r\n");
1836:.\BLEApplication.c ****                         printf("AT+OK\r\n");
1837:.\BLEApplication.c ****                         iocapability=CYBLE_GAP_IOCAP_KEYBOARD_ONLY;
1838:.\BLEApplication.c ****                     }
1839:.\BLEApplication.c ****                     else
1840:.\BLEApplication.c ****                     {
1841:.\BLEApplication.c ****                         printf("AT+ERR=2\r\n");//Ë°®Á§∫ÂëΩ‰ª§ËÆæÁΩÆÂ§±Ë¥•
1842:.\BLEApplication.c ****                     }
1843:.\BLEApplication.c ****                     break;
1844:.\BLEApplication.c ****                     case '3':
ARM GAS  C:\Users\Helon\AppData\Local\Temp\ccVeYEL4.s 			page 40


1845:.\BLEApplication.c ****                     API_RESULT=CyBle_GapSetIoCap(CYBLE_GAP_IOCAP_NOINPUT_NOOUTPUT);
1846:.\BLEApplication.c ****                     if(API_RESULT==CYBLE_ERROR_OK)
1847:.\BLEApplication.c ****                     {
1848:.\BLEApplication.c **** //                        printf("+IOCAP=<NOINPUT_NOOUTPUT>\r\n");
1849:.\BLEApplication.c ****                         printf("AT+OK\r\n");
1850:.\BLEApplication.c ****                         iocapability=CYBLE_GAP_IOCAP_NOINPUT_NOOUTPUT;
1851:.\BLEApplication.c ****                     }
1852:.\BLEApplication.c ****                     else
1853:.\BLEApplication.c ****                     {
1854:.\BLEApplication.c ****                         printf("AT+ERR=2\r\n");//Ë°®Á§∫ÂëΩ‰ª§ËÆæÁΩÆÂ§±Ë¥•
1855:.\BLEApplication.c ****                     }
1856:.\BLEApplication.c ****                     break;
1857:.\BLEApplication.c ****                     case '4':
1858:.\BLEApplication.c ****                     API_RESULT=CyBle_GapSetIoCap(CYBLE_GAP_IOCAP_KEYBOARD_DISPLAY);
1859:.\BLEApplication.c ****                     if(API_RESULT==CYBLE_ERROR_OK)
1860:.\BLEApplication.c ****                     {
1861:.\BLEApplication.c **** //                        printf("+IOCAP=<KEYBOARD_DISPLAY>\r\n");
1862:.\BLEApplication.c ****                         printf("AT+OK\r\n");
1863:.\BLEApplication.c ****                         iocapability=CYBLE_GAP_IOCAP_KEYBOARD_DISPLAY;
1864:.\BLEApplication.c ****                     }
1865:.\BLEApplication.c ****                     else
1866:.\BLEApplication.c ****                     {
1867:.\BLEApplication.c ****                         printf("AT+ERR=2\r\n");//Ë°®Á§∫ÂëΩ‰ª§ËÆæÁΩÆÂ§±Ë¥•
1868:.\BLEApplication.c ****                     }
1869:.\BLEApplication.c ****                     break;
1870:.\BLEApplication.c ****                     case '?':
1871:.\BLEApplication.c ****                         switch(iocapability)
1872:.\BLEApplication.c ****                         {
1873:.\BLEApplication.c ****                             case 0:
1874:.\BLEApplication.c ****                                     printf("+IOCAP=0\r\n");
1875:.\BLEApplication.c **** //                                printf("+IOCAP=<DISPLAY_ONLY>\r\n");
1876:.\BLEApplication.c ****                             break;
1877:.\BLEApplication.c ****                             case 1:
1878:.\BLEApplication.c ****                                     printf("+IOCAP=1\r\n");
1879:.\BLEApplication.c **** //                                printf("+IOCAP=<DISPLAY_YESNO>\r\n");
1880:.\BLEApplication.c ****                             break;
1881:.\BLEApplication.c ****                             case 2:
1882:.\BLEApplication.c ****                                     printf("+IOCAP=2\r\n");
1883:.\BLEApplication.c **** //                                printf("+IOCAP=<KEYBOARD_ONLY>\r\n");
1884:.\BLEApplication.c ****                             break;
1885:.\BLEApplication.c ****                             case 3:
1886:.\BLEApplication.c ****                                     printf("+IOCAP=3\r\n");
1887:.\BLEApplication.c **** //                                printf("+IOCAP=<NOINPUT_NOOUTPUT>\r\n");
1888:.\BLEApplication.c ****                             break;
1889:.\BLEApplication.c ****                             case 4:
1890:.\BLEApplication.c ****                                     printf("+IOCAP=4\r\n");
1891:.\BLEApplication.c **** //                                printf("+IOCAP=<KEYBOARD_DISPLAY>\r\n");
1892:.\BLEApplication.c ****                             break;
1893:.\BLEApplication.c ****                         }
1894:.\BLEApplication.c ****                     break;
1895:.\BLEApplication.c ****                     default:
1896:.\BLEApplication.c ****                         printf("AT+ERR=5\r\n");//Ë°®Á§∫Ê≤°ÊúâËØ•ATÂëΩ‰ª§
1897:.\BLEApplication.c ****                     break;
1898:.\BLEApplication.c ****                 }   
1899:.\BLEApplication.c ****             }            
1900:.\BLEApplication.c ****             else
1901:.\BLEApplication.c ****             {
ARM GAS  C:\Users\Helon\AppData\Local\Temp\ccVeYEL4.s 			page 41


1902:.\BLEApplication.c **** //                printf("+IOCAP=<INVALID>\r\n");
1903:.\BLEApplication.c ****                 printf("AT+ERR=3\r\n");//Ë°®Á§∫ÂΩìÂâçÁä∂ÊÄÅ‰∏çÊîØÊåÅËØ•ÂëΩ‰ª§
1904:.\BLEApplication.c ****             }
1905:.\BLEApplication.c ****         break;
1906:.\BLEApplication.c **** //            ÂèëËµ∑ÈÖçÂØπËØ∑Ê±Ç-----‰∏ª‰ªéÊúâÊïà            
1907:.\BLEApplication.c ****         case AUTH:
1908:.\BLEApplication.c ****             idx=SerialData[8];
1909:.\BLEApplication.c ****             if(idx=='?')
1910:.\BLEApplication.c ****             {
1911:.\BLEApplication.c ****                 if(AUTHFLAG)
1912:.\BLEApplication.c ****                         printf("+AUTH=1\r\n");
1913:.\BLEApplication.c **** //                    printf("+AUTH=<ENABLE>\r\n");
1914:.\BLEApplication.c ****                 else
1915:.\BLEApplication.c ****                         printf("+AUTH=0\r\n");
1916:.\BLEApplication.c **** //                    printf("+AUTH=<DISABLE>\r\n");
1917:.\BLEApplication.c ****             }
1918:.\BLEApplication.c ****             else if(idx=='1')
1919:.\BLEApplication.c ****             {
1920:.\BLEApplication.c ****                 if(!AUTHFLAG)
1921:.\BLEApplication.c ****                 {
1922:.\BLEApplication.c **** //                  ÂèëÈÄÅËÆ§ËØÅËØ∑Ê±Ç  
1923:.\BLEApplication.c ****                     API_RESULT=CyBle_GapAuthReq(cyBle_connHandle.bdHandle,&cyBle_authInfo); 
1924:.\BLEApplication.c ****                     if(API_RESULT==CYBLE_ERROR_OK)
1925:.\BLEApplication.c ****                     {
1926:.\BLEApplication.c ****                         printf("AT+OK\r\n");
1927:.\BLEApplication.c ****                     }
1928:.\BLEApplication.c ****                     else
1929:.\BLEApplication.c ****                     {
1930:.\BLEApplication.c ****                         printf("AT+ERR=2\r\n");//Ë°®Á§∫ÂëΩ‰ª§ËÆæÁΩÆÂ§±Ë¥•
1931:.\BLEApplication.c ****                     }
1932:.\BLEApplication.c ****                 }                                  
1933:.\BLEApplication.c ****                 else
1934:.\BLEApplication.c ****                 {
1935:.\BLEApplication.c ****                     printf("AT+ERR=3\r\n");//Ë°®Á§∫ÂΩìÂâçÁä∂ÊÄÅ‰∏çÊîØÊåÅËØ•ÂëΩ‰ª§
1936:.\BLEApplication.c ****                 }
1937:.\BLEApplication.c ****                     
1938:.\BLEApplication.c **** //                    printf("+AUTH=<INVALID>\r\n");
1939:.\BLEApplication.c ****             }
1940:.\BLEApplication.c ****             else
1941:.\BLEApplication.c ****             {
1942:.\BLEApplication.c ****                 printf("AT+ERR=5\r\n");//Ë°®Á§∫Ê≤°ÊúâËØ•ATÂëΩ‰ª§
1943:.\BLEApplication.c ****             }
1944:.\BLEApplication.c ****         break;
1945:.\BLEApplication.c **** //            ËÆæÁΩÆ‰ΩéÂäüËÄóËÉΩÂäõ-----‰∏ª‰ªéÊúâÊïà            
1946:.\BLEApplication.c ****         case SLEEP:
1947:.\BLEApplication.c ****             idx=SerialData[9];
1948:.\BLEApplication.c ****             switch(idx)
1949:.\BLEApplication.c ****             {
1950:.\BLEApplication.c ****                 case '0':
1951:.\BLEApplication.c **** //                    LowPower_EN=FALSE;
1952:.\BLEApplication.c ****                     SleepMode=FALSE;
1953:.\BLEApplication.c ****                     printf("AT+OK\r\n");
1954:.\BLEApplication.c ****                 break;
1955:.\BLEApplication.c ****                 case '1':
1956:.\BLEApplication.c **** //                    LowPower_EN=TURE;
1957:.\BLEApplication.c ****                     SleepMode=TURE;
1958:.\BLEApplication.c ****                     printf("AT+OK\r\n");
ARM GAS  C:\Users\Helon\AppData\Local\Temp\ccVeYEL4.s 			page 42


1959:.\BLEApplication.c ****                 break;
1960:.\BLEApplication.c ****                 case '?':
1961:.\BLEApplication.c ****                     if(SleepMode)
1962:.\BLEApplication.c ****                             printf("+SLEEPMODE=1\r\n");
1963:.\BLEApplication.c **** //                        printf("+SLEEPMODE=<ENABLE>\r\n");
1964:.\BLEApplication.c ****                     else
1965:.\BLEApplication.c ****                             printf("+SLEEPMODE=0\r\n");
1966:.\BLEApplication.c **** //                        printf("+SLEEPMODE=<DISABLE>\r\n");
1967:.\BLEApplication.c ****                 break;
1968:.\BLEApplication.c ****                 default:
1969:.\BLEApplication.c ****                     printf("AT+ERR=5\r\n");//Ë°®Á§∫Ê≤°ÊúâËØ•ATÂëΩ‰ª§
1970:.\BLEApplication.c ****                 break;
1971:.\BLEApplication.c ****             }
1972:.\BLEApplication.c ****         break;
1973:.\BLEApplication.c ****         case BOND:
1974:.\BLEApplication.c ****             idx=SerialData[8];
1975:.\BLEApplication.c ****             if(Role==Peripheral)
1976:.\BLEApplication.c ****             {
1977:.\BLEApplication.c ****                 CyBle_GapGetBondedDevicesList(&bondedDevList);//Èò≤Ê≠¢Âç≥‰ΩøÊéâÁîµÂêéÔºåÂÜçÊ¨°ÂèëËµ
1978:.\BLEApplication.c ****                 if(bondedDevList.count)
1979:.\BLEApplication.c ****                     Bond=TURE;
1980:.\BLEApplication.c ****                 else
1981:.\BLEApplication.c ****                     Bond=FALSE;
1982:.\BLEApplication.c ****                 switch(idx)
1983:.\BLEApplication.c ****                 {
1984:.\BLEApplication.c ****                     case '0':
1985:.\BLEApplication.c ****                         if(CYBLE_STATE_CONNECTED!=CyBle_GetState())//ÈùûËøûÊé•Áä∂ÊÄÅÊó∂ÔºåËß£Èô§Áªë
1986:.\BLEApplication.c ****                         {                                                        
1987:.\BLEApplication.c ****                             if(Bond)
1988:.\BLEApplication.c ****                             {
1989:.\BLEApplication.c ****                                 CyBle_GapRemoveDeviceFromWhiteList(&clearAllDevices);//Ê∏ÖÈô§ÁªëÂÆö
1990:.\BLEApplication.c ****                                 while(CYBLE_ERROR_OK != CyBle_StoreBondingData(1));
1991:.\BLEApplication.c ****                                 printf("+BOND=0\r\n");//Ê∏ÖÈô§ÁªëÂÆöÊàêÂäü
1992:.\BLEApplication.c ****                                 Bond=FALSE;
1993:.\BLEApplication.c ****                             }                                             
1994:.\BLEApplication.c ****                             else
1995:.\BLEApplication.c ****                             {
1996:.\BLEApplication.c ****                                 printf("+BOND=2\r\n");//Ê∏ÖÈô§ÁªëÂÆöÂ§±Ë¥• 
1997:.\BLEApplication.c ****                             }
1998:.\BLEApplication.c ****                         }
1999:.\BLEApplication.c ****                         else
2000:.\BLEApplication.c ****                         {
2001:.\BLEApplication.c ****                             printf("AT+ERR=3\r\n");//ÂΩìÂâçÁöÑ BLE Áä∂ÊÄÅ‰∏ã‰∏çÊîØÊåÅËØ•ÂëΩ‰ª§
2002:.\BLEApplication.c ****                         }
2003:.\BLEApplication.c ****                     break;
2004:.\BLEApplication.c ****                     case '?':
2005:.\BLEApplication.c ****                         if(Bond)
2006:.\BLEApplication.c ****                            printf("+BOND=1\r\n");//ÁªëÂÆöÊàêÂäü 
2007:.\BLEApplication.c ****                         else
2008:.\BLEApplication.c ****                             printf("+BOND=0\r\n");//Ê∏ÖÈô§ÁªëÂÆöÊàêÂäü
2009:.\BLEApplication.c ****                     break;                        
2010:.\BLEApplication.c ****                     default:
2011:.\BLEApplication.c ****                         printf("AT+ERR=5\r\n");//Ë°®Á§∫Ê≤°ÊúâËØ•ATÂëΩ‰ª§
2012:.\BLEApplication.c ****                     break;                        
2013:.\BLEApplication.c ****                 }                                                  
2014:.\BLEApplication.c ****             }
2015:.\BLEApplication.c ****             else
ARM GAS  C:\Users\Helon\AppData\Local\Temp\ccVeYEL4.s 			page 43


2016:.\BLEApplication.c ****             {
2017:.\BLEApplication.c ****                 if(CYBLE_STATE_CONNECTED!=CyBle_GetState())
2018:.\BLEApplication.c ****                 {
2019:.\BLEApplication.c ****                     
2020:.\BLEApplication.c ****                 }
2021:.\BLEApplication.c ****             }
2022:.\BLEApplication.c ****         break;
2023:.\BLEApplication.c ****         default:
2024:.\BLEApplication.c ****             printf("AT+ERR=5\r\n");//Ë°®Á§∫Ê≤°ÊúâËØ•ATÂëΩ‰ª§
2025:.\BLEApplication.c ****         break;
2026:.\BLEApplication.c ****     }
2027:.\BLEApplication.c ****         
2028:.\BLEApplication.c **** }
2029:.\BLEApplication.c **** 
2030:.\BLEApplication.c **** /******************************************************************************
2031:.\BLEApplication.c **** * Function Name: Command_Identify
2032:.\BLEApplication.c **** ***************************************************************************//**
2033:.\BLEApplication.c **** * 
2034:.\BLEApplication.c **** *  ËØÜÂà´ATÂëΩ‰ª§
2035:.\BLEApplication.c **** * \param  SerialData:ÊåáÂêëcharÂûãÁöÑÊåáÈíà
2036:.\BLEApplication.c **** * \return ËøîÂõûATÂëΩ‰ª§Âú®ATÂëΩ‰ª§ÂàóË°®‰∏≠ÁöÑÁ¥¢ÂºïÂÄº
2037:.\BLEApplication.c **** *  
2038:.\BLEApplication.c **** * 
2039:.\BLEApplication.c **** ******************************************************************************/
2040:.\BLEApplication.c **** uint8_t Command_Identify(const char* SerialData)
2041:.\BLEApplication.c **** {
2042:.\BLEApplication.c ****     if(NULL==SerialData)
2043:.\BLEApplication.c ****         return FALSE;
2044:.\BLEApplication.c ****     uint8_t SerialArryLength=0,i=0,location;    
2045:.\BLEApplication.c **** //    char String[20]={0};
2046:.\BLEApplication.c ****     if(0==strcmp(SerialData,"AT\r\n"))
2047:.\BLEApplication.c ****     {
2048:.\BLEApplication.c **** //        printf("OK\r\n");
2049:.\BLEApplication.c ****         return _AT;
2050:.\BLEApplication.c ****     }
2051:.\BLEApplication.c ****     //Ëé∑ÂèñATÂëΩ‰ª§Á≠âÂè∑ÁöÑ‰ΩçÁΩÆÔºåÂ¶Ç‚ÄúAT+RESET=1‚Äù‰∏≠‚Äú=‚ÄùÂè∑ÁöÑ‰ΩçÁΩÆÊòØ8.
2052:.\BLEApplication.c ****     location=strchr((char*)SerialData,'=')-SerialData;
2053:.\BLEApplication.c ****     if(location>14)
2054:.\BLEApplication.c ****     {
2055:.\BLEApplication.c ****         return 0xff;
2056:.\BLEApplication.c ****     }
2057:.\BLEApplication.c **** //    Âä®ÊÄÅÂàÜÈÖçÂ†ÜÁ©∫Èó¥
2058:.\BLEApplication.c ****     char* String=malloc(sizeof(char)*location);
2059:.\BLEApplication.c ****     //‰øùÂ≠òATÂëΩ‰ª§Á≠âÂè∑ÂâçÁöÑÊï∞ÊçÆ.
2060:.\BLEApplication.c ****     strncpy(String,SerialData,location);
2061:.\BLEApplication.c ****     SerialArryLength=sizeof(StringArry)/sizeof(StringArry[0]);   
2062:.\BLEApplication.c **** //    ÂåπÈÖçATÂëΩ‰ª§ÂàóË°®‰∏≠ATÂëΩ‰ª§ÁöÑ‰ΩçÁΩÆ
2063:.\BLEApplication.c ****     for(i=0;i<SerialArryLength;i++)
2064:.\BLEApplication.c ****     {
2065:.\BLEApplication.c ****         if(strncmp((char*)String,StringArry[i],location)==0)
2066:.\BLEApplication.c ****         {
2067:.\BLEApplication.c ****             break;
2068:.\BLEApplication.c ****         }
2069:.\BLEApplication.c **** //        printf("%s\r\n",StringArry[i]);
2070:.\BLEApplication.c **** //        printf("%d\r\n",strcmp((char*)String,StringArry[i]));
2071:.\BLEApplication.c ****     }
2072:.\BLEApplication.c **** //    ÈáäÊîæ‰πãÂâçÂàÜÈÖçÁöÑÂ†ÜÁ©∫Èó¥
ARM GAS  C:\Users\Helon\AppData\Local\Temp\ccVeYEL4.s 			page 44


2073:.\BLEApplication.c ****     free(String);
2074:.\BLEApplication.c ****     return i;
2075:.\BLEApplication.c **** }
2076:.\BLEApplication.c **** 
2077:.\BLEApplication.c **** /*******************************************************************************
2078:.\BLEApplication.c **** * Function Name: MyTimerIsr()
2079:.\BLEApplication.c **** ********************************************************************************
2080:.\BLEApplication.c **** * Summary:
2081:.\BLEApplication.c **** * Interrupt service routine for the timer block.
2082:.\BLEApplication.c **** *
2083:.\BLEApplication.c **** * Parameters:
2084:.\BLEApplication.c **** * None
2085:.\BLEApplication.c **** *
2086:.\BLEApplication.c **** * Return:
2087:.\BLEApplication.c **** * None
2088:.\BLEApplication.c **** *
2089:.\BLEApplication.c **** * Theory:
2090:.\BLEApplication.c **** * The ISR is fired when the timer reaches terminal count. In the ISR, the total
2091:.\BLEApplication.c **** * number of bytes received until now is cached locally (to avoid any potential 
2092:.\BLEApplication.c **** * race conditions) and then the throughput is calculated from it.
2093:.\BLEApplication.c **** * Since the ISR fires 10 seconds after the timer is started, the total number
2094:.\BLEApplication.c **** * of bytes is divided by 10. The bytes are converted to kilobytes by dividing 
2095:.\BLEApplication.c **** * by 1024. It is then converted to kilo bits by multiplying the result by 8.
2096:.\BLEApplication.c **** *
2097:.\BLEApplication.c **** * Side Effects:
2098:.\BLEApplication.c **** * None
2099:.\BLEApplication.c **** *
2100:.\BLEApplication.c **** *******************************************************************************/
2101:.\BLEApplication.c **** CY_ISR(MyTimerIsr)
2102:.\BLEApplication.c **** {
 374              		.loc 1 2102 0
 375              		.cfi_startproc
 376 0000 38B5     		push	{r3, r4, r5, lr}
 377              		.cfi_def_cfa_offset 16
 378              		.cfi_offset 3, -16
 379              		.cfi_offset 4, -12
 380              		.cfi_offset 5, -8
 381              		.cfi_offset 14, -4
2103:.\BLEApplication.c **** //    uint32 cachedTotalByteCounter = totalByteCounter;
2104:.\BLEApplication.c **** //    uint32 throughput;
2105:.\BLEApplication.c ****     static uint32 timercount=0;
2106:.\BLEApplication.c ****     Timer_ClearInterrupt(Timer_INTR_MASK_TC);
 382              		.loc 1 2106 0
 383 0002 0120     		mov	r0, #1
 384 0004 FFF7FEFF 		bl	Timer_ClearInterrupt
 385              	.LVL57:
2107:.\BLEApplication.c ****     _10sIsOver=TURE;
 386              		.loc 1 2107 0
 387 0008 094A     		ldr	r2, .L31
 388 000a 0123     		mov	r3, #1
 389 000c 9370     		strb	r3, [r2, #2]
2108:.\BLEApplication.c ****     timercount++;
 390              		.loc 1 2108 0
 391 000e 5368     		ldr	r3, [r2, #4]
 392 0010 0133     		add	r3, r3, #1
 393 0012 5360     		str	r3, [r2, #4]
2109:.\BLEApplication.c ****     if(timercount==10001)
ARM GAS  C:\Users\Helon\AppData\Local\Temp\ccVeYEL4.s 			page 45


 394              		.loc 1 2109 0
 395 0014 074A     		ldr	r2, .L31+4
 396 0016 9342     		cmp	r3, r2
 397 0018 08D1     		bne	.L29
2110:.\BLEApplication.c ****     {
2111:.\BLEApplication.c ****         _10sIsOver=FALSE;
 398              		.loc 1 2111 0
 399 001a 054C     		ldr	r4, .L31
 400 001c 0025     		mov	r5, #0
 401 001e A570     		strb	r5, [r4, #2]
2112:.\BLEApplication.c ****         Timer_Stop();
 402              		.loc 1 2112 0
 403 0020 FFF7FEFF 		bl	Timer_Stop
 404              	.LVL58:
2113:.\BLEApplication.c ****         timercount=0;
 405              		.loc 1 2113 0
 406 0024 6560     		str	r5, [r4, #4]
2114:.\BLEApplication.c ****         printf("Send Compelete!\r\n");
 407              		.loc 1 2114 0
 408 0026 0448     		ldr	r0, .L31+8
 409 0028 FFF7FEFF 		bl	puts
 410              	.LVL59:
 411              	.L29:
2115:.\BLEApplication.c ****         
2116:.\BLEApplication.c ****     }
2117:.\BLEApplication.c **** //    charNotificationEnabled=FALSE;
2118:.\BLEApplication.c **** //    TroughtTest_Flag=FALSE;
2119:.\BLEApplication.c **** //    TroughtTest_Flag=FALSE;
2120:.\BLEApplication.c ****     /* Total bytes received in 10 seconds converted to Kilo bits per second */
2121:.\BLEApplication.c **** //    printf("totalByteCounter is %ld",totalByteCounter);
2122:.\BLEApplication.c **** //    while((UART_SpiUartGetTxBufferSize() + UART_GET_TX_FIFO_SR_VALID) != 0);//Á≠âÂæÖ‰∏≤Âè£ÁºìÂÜ≤Â
2123:.\BLEApplication.c **** //    throughput = (cachedTotalByteCounter >> 7) / 10;
2124:.\BLEApplication.c **** //    printf("\r\n+SPEED=<%ldkbps>\r\n",throughput);      
2125:.\BLEApplication.c **** //    CyBle_GattcWriteCharacteristicDescriptors(cyBle_connHandle, &writeRequestData);
2126:.\BLEApplication.c **** }
 412              		.loc 1 2126 0
 413              		@ sp needed
 414 002c 38BD     		pop	{r3, r4, r5, pc}
 415              	.L32:
 416 002e C046     		.align	2
 417              	.L31:
 418 0030 00000000 		.word	.LANCHOR0
 419 0034 11270000 		.word	10001
 420 0038 28000000 		.word	.LC10
 421              		.cfi_endproc
 422              	.LFE47:
 423              		.size	MyTimerIsr, .-MyTimerIsr
 424              		.section	.text.LowPowerManagement,"ax",%progbits
 425              		.align	2
 426              		.global	LowPowerManagement
 427              		.code	16
 428              		.thumb_func
 429              		.type	LowPowerManagement, %function
 430              	LowPowerManagement:
 431              	.LFB38:
 629:.\BLEApplication.c ****     /* Local variable to store the status of BLESS Hardware block */
 432              		.loc 1 629 0
ARM GAS  C:\Users\Helon\AppData\Local\Temp\ccVeYEL4.s 			page 46


 433              		.cfi_startproc
 434 0000 10B5     		push	{r4, lr}
 435              		.cfi_def_cfa_offset 8
 436              		.cfi_offset 4, -8
 437              		.cfi_offset 14, -4
 635:.\BLEApplication.c **** 		
 438              		.loc 1 635 0
 439 0002 0320     		mov	r0, #3
 440 0004 FFF7FEFF 		bl	CyBle_EnterLPM
 441              	.LVL60:
 442 0008 041C     		mov	r4, r0
 443              	.LVL61:
 638:.\BLEApplication.c **** 	
 444              		.loc 1 638 0
 445              	@ 638 ".\BLEApplication.c" 1
 446 000a 72B6     		CPSID   i
 447              	@ 0 "" 2
 641:.\BLEApplication.c **** 
 448              		.loc 1 641 0
 449              		.code	16
 450 000c FFF7FEFF 		bl	CyBle_GetBleSsState
 451              	.LVL62:
 643:.\BLEApplication.c **** 		{
 452              		.loc 1 643 0
 453 0010 032C     		cmp	r4, #3
 454 0012 06D1     		bne	.L34
 647:.\BLEApplication.c **** 		    {
 455              		.loc 1 647 0
 456 0014 0428     		cmp	r0, #4
 457 0016 01D0     		beq	.L35
 647:.\BLEApplication.c **** 		    {
 458              		.loc 1 647 0 is_stmt 0 discriminator 1
 459 0018 0628     		cmp	r0, #6
 460 001a 08D1     		bne	.L36
 461              	.L35:
 652:.\BLEApplication.c **** //                UART_Wakeup();
 462              		.loc 1 652 0 is_stmt 1
 463 001c FFF7FEFF 		bl	CySysPmDeepSleep
 464              	.LVL63:
 465 0020 05E0     		b	.L36
 466              	.LVL64:
 467              	.L34:
 679:.\BLEApplication.c **** 		{
 468              		.loc 1 679 0
 469 0022 022C     		cmp	r4, #2
 470 0024 03D1     		bne	.L36
 681:.\BLEApplication.c **** 		    {
 471              		.loc 1 681 0
 472 0026 0228     		cmp	r0, #2
 473 0028 01D0     		beq	.L36
 685:.\BLEApplication.c **** 		    }
 474              		.loc 1 685 0
 475 002a FFF7FEFF 		bl	CySysPmSleep
 476              	.LVL65:
 477              	.L36:
 689:.\BLEApplication.c ****         
 478              		.loc 1 689 0
ARM GAS  C:\Users\Helon\AppData\Local\Temp\ccVeYEL4.s 			page 47


 479              	@ 689 ".\BLEApplication.c" 1
 480 002e 62B6     		CPSIE   i
 481              	@ 0 "" 2
 691:.\BLEApplication.c **** 
 482              		.loc 1 691 0
 483              		.code	16
 484              		@ sp needed
 485              	.LVL66:
 486 0030 10BD     		pop	{r4, pc}
 487              		.cfi_endproc
 488              	.LFE38:
 489              		.size	LowPowerManagement, .-LowPowerManagement
 490 0032 C046     		.section	.text.MY_ISR_USERBUTTON,"ax",%progbits
 491              		.align	2
 492              		.global	MY_ISR_USERBUTTON
 493              		.code	16
 494              		.thumb_func
 495              		.type	MY_ISR_USERBUTTON, %function
 496              	MY_ISR_USERBUTTON:
 497              	.LFB39:
 704:.\BLEApplication.c **** //    isr_UserButton_ClearPending();
 498              		.loc 1 704 0
 499              		.cfi_startproc
 716:.\BLEApplication.c **** /******************************************************************************
 500              		.loc 1 716 0
 501              		@ sp needed
 502 0000 7047     		bx	lr
 503              		.cfi_endproc
 504              	.LFE39:
 505              		.size	MY_ISR_USERBUTTON, .-MY_ISR_USERBUTTON
 506 0002 C046     		.section	.text.My_ISR_UART,"ax",%progbits
 507              		.align	2
 508              		.global	My_ISR_UART
 509              		.code	16
 510              		.thumb_func
 511              		.type	My_ISR_UART, %function
 512              	My_ISR_UART:
 513              	.LFB40:
 728:.\BLEApplication.c **** //    uint8_t rxdata;
 514              		.loc 1 728 0
 515              		.cfi_startproc
 730:.\BLEApplication.c ****     {
 516              		.loc 1 730 0
 517 0000 054B     		ldr	r3, .L40
 518 0002 1B68     		ldr	r3, [r3]
 519 0004 5B07     		lsl	r3, r3, #29
 520 0006 02D5     		bpl	.L39
 732:.\BLEApplication.c ****         //ËØªÂèñ‰∏≤Âè£Êï∞ÊçÆ
 521              		.loc 1 732 0
 522 0008 0122     		mov	r2, #1
 523 000a 044B     		ldr	r3, .L40+4
 524 000c 1A72     		strb	r2, [r3, #8]
 525              	.L39:
 750:.\BLEApplication.c ****   
 526              		.loc 1 750 0
 527 000e 0422     		mov	r2, #4
 528 0010 034B     		ldr	r3, .L40+8
ARM GAS  C:\Users\Helon\AppData\Local\Temp\ccVeYEL4.s 			page 48


 529 0012 1A60     		str	r2, [r3]
 752:.\BLEApplication.c **** 
 530              		.loc 1 752 0
 531              		@ sp needed
 532 0014 7047     		bx	lr
 533              	.L41:
 534 0016 C046     		.align	2
 535              	.L40:
 536 0018 CC0F2540 		.word	1076170700
 537 001c 00000000 		.word	.LANCHOR0
 538 0020 C00F2540 		.word	1076170688
 539              		.cfi_endproc
 540              	.LFE40:
 541              		.size	My_ISR_UART, .-My_ISR_UART
 542              		.section	.text.ConfigUartInit,"ax",%progbits
 543              		.align	2
 544              		.global	ConfigUartInit
 545              		.code	16
 546              		.thumb_func
 547              		.type	ConfigUartInit, %function
 548              	ConfigUartInit:
 549              	.LFB42:
 808:.\BLEApplication.c **** //    configUart.mode=UART_UART_MODE_STD;         /* mode: Standard */ 
 550              		.loc 1 808 0
 551              		.cfi_startproc
 835:.\BLEApplication.c **** /******************************************************************************
 552              		.loc 1 835 0
 553              		@ sp needed
 554 0000 7047     		bx	lr
 555              		.cfi_endproc
 556              	.LFE42:
 557              		.size	ConfigUartInit, .-ConfigUartInit
 558 0002 C046     		.section	.text.SetUartConfiguration,"ax",%progbits
 559              		.align	2
 560              		.global	SetUartConfiguration
 561              		.code	16
 562              		.thumb_func
 563              		.type	SetUartConfiguration, %function
 564              	SetUartConfiguration:
 565              	.LFB43:
 847:.\BLEApplication.c **** //    cystatus status = CYRET_SUCCESS; 
 566              		.loc 1 847 0
 567              		.cfi_startproc
 568              	.LVL67:
 857:.\BLEApplication.c **** 
 569              		.loc 1 857 0
 570              		@ sp needed
 571 0000 7047     		bx	lr
 572              		.cfi_endproc
 573              	.LFE43:
 574              		.size	SetUartConfiguration, .-SetUartConfiguration
 575 0002 C046     		.section	.text.LedInit,"ax",%progbits
 576              		.align	2
 577              		.global	LedInit
 578              		.code	16
 579              		.thumb_func
 580              		.type	LedInit, %function
ARM GAS  C:\Users\Helon\AppData\Local\Temp\ccVeYEL4.s 			page 49


 581              	LedInit:
 582              	.LFB44:
 870:.\BLEApplication.c ****     Status_LED_SetDriveMode(Status_LED_DM_STRONG);
 583              		.loc 1 870 0
 584              		.cfi_startproc
 585 0000 08B5     		push	{r3, lr}
 586              		.cfi_def_cfa_offset 8
 587              		.cfi_offset 3, -8
 588              		.cfi_offset 14, -4
 871:.\BLEApplication.c ****     Connected_LED_SetDriveMode(Connected_LED_DM_STRONG);
 589              		.loc 1 871 0
 590 0002 0620     		mov	r0, #6
 591 0004 FFF7FEFF 		bl	Status_LED_SetDriveMode
 592              	.LVL68:
 872:.\BLEApplication.c ****     Status_LED_Write(LED_OFF);
 593              		.loc 1 872 0
 594 0008 0620     		mov	r0, #6
 595 000a FFF7FEFF 		bl	Connected_LED_SetDriveMode
 596              	.LVL69:
 873:.\BLEApplication.c ****     Connected_LED_Write(LED_OFF);
 597              		.loc 1 873 0
 598 000e 0120     		mov	r0, #1
 599 0010 FFF7FEFF 		bl	Status_LED_Write
 600              	.LVL70:
 874:.\BLEApplication.c **** }
 601              		.loc 1 874 0
 602 0014 0120     		mov	r0, #1
 603 0016 FFF7FEFF 		bl	Connected_LED_Write
 604              	.LVL71:
 875:.\BLEApplication.c **** 
 605              		.loc 1 875 0
 606              		@ sp needed
 607 001a 08BD     		pop	{r3, pc}
 608              		.cfi_endproc
 609              	.LFE44:
 610              		.size	LedInit, .-LedInit
 611              		.section	.text.SystemInitialization,"ax",%progbits
 612              		.align	2
 613              		.global	SystemInitialization
 614              		.code	16
 615              		.thumb_func
 616              		.type	SystemInitialization, %function
 617              	SystemInitialization:
 618              	.LFB41:
 765:.\BLEApplication.c **** //    ÊµÅÊéßÂºïËÑöÁöÑÂàùÂßãÂåñ
 619              		.loc 1 765 0
 620              		.cfi_startproc
 621 0000 08B5     		push	{r3, lr}
 622              		.cfi_def_cfa_offset 8
 623              		.cfi_offset 3, -8
 624              		.cfi_offset 14, -4
 767:.\BLEApplication.c ****     CTS_Write(CTS_OFF);//ÊµÅÊéßÊòØÈ´òÁîµÂπ≥ÊúâÊïà
 625              		.loc 1 767 0
 626 0002 0620     		mov	r0, #6
 627 0004 FFF7FEFF 		bl	CTS_SetDriveMode
 628              	.LVL72:
 768:.\BLEApplication.c ****     UART_rx_wake_SetDriveMode(UART_rx_wake_DM_RES_UP);//ËÆæÁΩÆRXËÑö‰∏∫ÂÜÖÈÉ®‰∏äÊãâ
ARM GAS  C:\Users\Helon\AppData\Local\Temp\ccVeYEL4.s 			page 50


 629              		.loc 1 768 0
 630 0008 0020     		mov	r0, #0
 631 000a FFF7FEFF 		bl	CTS_Write
 632              	.LVL73:
 769:.\BLEApplication.c ****     UART_tx_SetDriveMode(UART_tx_DM_RES_UP);//ËÆæÁΩÆTX‰∏∫ÂÜÖÈÉ®‰∏äÊãâ
 633              		.loc 1 769 0
 634 000e 0220     		mov	r0, #2
 635 0010 FFF7FEFF 		bl	UART_rx_wake_SetDriveMode
 636              	.LVL74:
 770:.\BLEApplication.c **** //    uint16_t counter;
 637              		.loc 1 770 0
 638 0014 0220     		mov	r0, #2
 639 0016 FFF7FEFF 		bl	UART_tx_SetDriveMode
 640              	.LVL75:
 778:.\BLEApplication.c ****     writeRequestData.value=cccdNotifFlagSetStruct;
 641              		.loc 1 778 0
 642 001a 0B4B     		ldr	r3, .L46
 643 001c 0F22     		mov	r2, #15
 644 001e 1A81     		strh	r2, [r3, #8]
 779:.\BLEApplication.c **** //    ÂàùÂßãÂåñÂπøÊí≠Èó¥ÈöîÂíåÂπøÂëäË∂ÖÊó∂Êó∂Èó¥
 645              		.loc 1 779 0
 646 0020 0A4A     		ldr	r2, .L46+4
 647 0022 03CA     		ldmia	r2!, {r0, r1}
 648 0024 03C3     		stmia	r3!, {r0, r1}
 786:.\BLEApplication.c ****     TimerInterrupt_StartEx(MyTimerIsr);
 649              		.loc 1 786 0
 650 0026 FFF7FEFF 		bl	Timer_Init
 651              	.LVL76:
 787:.\BLEApplication.c ****     UART_Start();
 652              		.loc 1 787 0
 653 002a 0948     		ldr	r0, .L46+8
 654 002c FFF7FEFF 		bl	TimerInterrupt_StartEx
 655              	.LVL77:
 788:.\BLEApplication.c ****   //    UART_SCB_IRQ_StartEx(My_ISR_UART);   
 656              		.loc 1 788 0
 657 0030 FFF7FEFF 		bl	UART_Start
 658              	.LVL78:
 791:.\BLEApplication.c ****     CyBle_Start(StackEventHandler);
 659              		.loc 1 791 0
 660 0034 FFF7FEFF 		bl	LedInit
 661              	.LVL79:
 792:.\BLEApplication.c ****     CyBle_GapFixAuthPassKey(TRUE,PASSKEY);
 662              		.loc 1 792 0
 663 0038 0648     		ldr	r0, .L46+12
 664 003a FFF7FEFF 		bl	CyBle_Start
 665              	.LVL80:
 793:.\BLEApplication.c **** //    CyBle_ProcessEvents();
 666              		.loc 1 793 0
 667 003e 0120     		mov	r0, #1
 668 0040 0549     		ldr	r1, .L46+16
 669 0042 FFF7FEFF 		bl	CyBle_GapFixAuthPassKey
 670              	.LVL81:
 795:.\BLEApplication.c **** 
 671              		.loc 1 795 0
 672              		@ sp needed
 673 0046 08BD     		pop	{r3, pc}
 674              	.L47:
ARM GAS  C:\Users\Helon\AppData\Local\Temp\ccVeYEL4.s 			page 51


 675              		.align	2
 676              	.L46:
 677 0048 00000000 		.word	writeRequestData
 678 004c 00000000 		.word	.LANCHOR1
 679 0050 00000000 		.word	MyTimerIsr
 680 0054 00000000 		.word	StackEventHandler
 681 0058 39300000 		.word	12345
 682              		.cfi_endproc
 683              	.LFE41:
 684              		.size	SystemInitialization, .-SystemInitialization
 685              		.section	.text.Command_Identify,"ax",%progbits
 686              		.align	2
 687              		.global	Command_Identify
 688              		.code	16
 689              		.thumb_func
 690              		.type	Command_Identify, %function
 691              	Command_Identify:
 692              	.LFB46:
2041:.\BLEApplication.c ****     if(NULL==SerialData)
 693              		.loc 1 2041 0
 694              		.cfi_startproc
 695              	.LVL82:
 696 0000 70B5     		push	{r4, r5, r6, lr}
 697              		.cfi_def_cfa_offset 16
 698              		.cfi_offset 4, -16
 699              		.cfi_offset 5, -12
 700              		.cfi_offset 6, -8
 701              		.cfi_offset 14, -4
2042:.\BLEApplication.c ****         return FALSE;
 702              		.loc 1 2042 0
 703 0002 0028     		cmp	r0, #0
 704 0004 2CD0     		beq	.L53
 705 0006 041C     		mov	r4, r0
 706              	.LVL83:
2046:.\BLEApplication.c ****     {
 707              		.loc 1 2046 0
 708 0008 1849     		ldr	r1, .L56
 709 000a FFF7FEFF 		bl	strcmp
 710              	.LVL84:
 711 000e 0028     		cmp	r0, #0
 712 0010 28D0     		beq	.L54
2052:.\BLEApplication.c ****     if(location>14)
 713              		.loc 1 2052 0
 714 0012 201C     		mov	r0, r4
 715 0014 3D21     		mov	r1, #61
 716 0016 FFF7FEFF 		bl	strchr
 717              	.LVL85:
 718 001a 001B     		sub	r0, r0, r4
 719 001c C3B2     		uxtb	r3, r0
 720              	.LVL86:
2053:.\BLEApplication.c ****     {
 721              		.loc 1 2053 0
 722 001e 0E2B     		cmp	r3, #14
 723 0020 22D8     		bhi	.L55
 724 0022 FF25     		mov	r5, #255
 725 0024 0540     		and	r5, r0
2058:.\BLEApplication.c ****     //‰øùÂ≠òATÂëΩ‰ª§Á≠âÂè∑ÂâçÁöÑÊï∞ÊçÆ.
ARM GAS  C:\Users\Helon\AppData\Local\Temp\ccVeYEL4.s 			page 52


 726              		.loc 1 2058 0
 727 0026 281C     		mov	r0, r5
 728 0028 FFF7FEFF 		bl	malloc
 729              	.LVL87:
 730 002c 061C     		mov	r6, r0
 731              	.LVL88:
2060:.\BLEApplication.c ****     SerialArryLength=sizeof(StringArry)/sizeof(StringArry[0]);   
 732              		.loc 1 2060 0
 733 002e 211C     		mov	r1, r4
 734 0030 2A1C     		mov	r2, r5
 735 0032 FFF7FEFF 		bl	strncpy
 736              	.LVL89:
2063:.\BLEApplication.c ****     {
 737              		.loc 1 2063 0
 738 0036 0024     		mov	r4, #0
 739              	.LVL90:
 740 0038 0BE0     		b	.L50
 741              	.LVL91:
 742              	.L52:
2065:.\BLEApplication.c ****         {
 743              		.loc 1 2065 0
 744 003a A300     		lsl	r3, r4, #2
 745 003c 0C4A     		ldr	r2, .L56+4
 746 003e D318     		add	r3, r2, r3
 747 0040 9968     		ldr	r1, [r3, #8]
 748 0042 301C     		mov	r0, r6
 749 0044 2A1C     		mov	r2, r5
 750 0046 FFF7FEFF 		bl	strncmp
 751              	.LVL92:
 752 004a 0028     		cmp	r0, #0
 753 004c 03D0     		beq	.L51
2063:.\BLEApplication.c ****     {
 754              		.loc 1 2063 0 discriminator 2
 755 004e 0134     		add	r4, r4, #1
 756              	.LVL93:
 757 0050 E4B2     		uxtb	r4, r4
 758              	.LVL94:
 759              	.L50:
2063:.\BLEApplication.c ****     {
 760              		.loc 1 2063 0 is_stmt 0 discriminator 1
 761 0052 1B2C     		cmp	r4, #27
 762 0054 F1D9     		bls	.L52
 763              	.L51:
2073:.\BLEApplication.c ****     return i;
 764              		.loc 1 2073 0 is_stmt 1
 765 0056 301C     		mov	r0, r6
 766 0058 FFF7FEFF 		bl	free
 767              	.LVL95:
2074:.\BLEApplication.c **** }
 768              		.loc 1 2074 0
 769 005c 201C     		mov	r0, r4
 770 005e 04E0     		b	.L49
 771              	.LVL96:
 772              	.L53:
2043:.\BLEApplication.c ****     uint8_t SerialArryLength=0,i=0,location;    
 773              		.loc 1 2043 0
 774 0060 0020     		mov	r0, #0
ARM GAS  C:\Users\Helon\AppData\Local\Temp\ccVeYEL4.s 			page 53


 775              	.LVL97:
 776 0062 02E0     		b	.L49
 777              	.LVL98:
 778              	.L54:
2049:.\BLEApplication.c ****     }
 779              		.loc 1 2049 0
 780 0064 1320     		mov	r0, #19
 781 0066 00E0     		b	.L49
 782              	.LVL99:
 783              	.L55:
2055:.\BLEApplication.c ****     }
 784              		.loc 1 2055 0
 785 0068 FF20     		mov	r0, #255
 786              	.LVL100:
 787              	.L49:
2075:.\BLEApplication.c **** 
 788              		.loc 1 2075 0
 789              		@ sp needed
 790 006a 70BD     		pop	{r4, r5, r6, pc}
 791              	.L57:
 792              		.align	2
 793              	.L56:
 794 006c 3C000000 		.word	.LC17
 795 0070 00000000 		.word	.LANCHOR1
 796              		.cfi_endproc
 797              	.LFE46:
 798              		.size	Command_Identify, .-Command_Identify
 799              		.section	.text.SendNotification,"ax",%progbits
 800              		.align	2
 801              		.global	SendNotification
 802              		.code	16
 803              		.thumb_func
 804              		.type	SendNotification, %function
 805              	SendNotification:
 806              	.LFB48:
2127:.\BLEApplication.c **** 
2128:.\BLEApplication.c **** /*******************************************************************************
2129:.\BLEApplication.c **** * Function Name: SendNotification()
2130:.\BLEApplication.c **** ********************************************************************************
2131:.\BLEApplication.c **** * Summary:
2132:.\BLEApplication.c **** * This function creates a notification packet and sends it.
2133:.\BLEApplication.c **** *
2134:.\BLEApplication.c **** * Parameters:
2135:.\BLEApplication.c **** * None
2136:.\BLEApplication.c **** *
2137:.\BLEApplication.c **** * Return:
2138:.\BLEApplication.c **** * None
2139:.\BLEApplication.c **** *
2140:.\BLEApplication.c **** * Theory:
2141:.\BLEApplication.c **** * The function creates a notification packet for the custom characteristic and 
2142:.\BLEApplication.c **** * sends it over BLE. The amount of data sent for the characteristic is equal 
2143:.\BLEApplication.c **** * to (negotiated MTU size - 3) bytes.
2144:.\BLEApplication.c **** *
2145:.\BLEApplication.c **** * Side Effects:
2146:.\BLEApplication.c **** * None
2147:.\BLEApplication.c **** *
2148:.\BLEApplication.c **** *******************************************************************************/
ARM GAS  C:\Users\Helon\AppData\Local\Temp\ccVeYEL4.s 			page 54


2149:.\BLEApplication.c **** void SendNotification(uint8_t*val,uint16_t len)
2150:.\BLEApplication.c **** {
 807              		.loc 1 2150 0
 808              		.cfi_startproc
 809              	.LVL101:
 810 0000 00B5     		push	{lr}
 811              		.cfi_def_cfa_offset 4
 812              		.cfi_offset 14, -4
 813 0002 85B0     		sub	sp, sp, #20
 814              		.cfi_def_cfa_offset 24
 815              	.LVL102:
2151:.\BLEApplication.c **** //    uint8   index;
2152:.\BLEApplication.c **** //    uint8   uartTxData[negotiatedMtu - 3];
2153:.\BLEApplication.c ****     CYBLE_API_RESULT_T API_RESULT=0;
2154:.\BLEApplication.c **** //    uint16_t uartTxDataLength;
2155:.\BLEApplication.c **** //    static uint16 uartIdleCount = UART_IDLE_TIMEOUT;
2156:.\BLEApplication.c **** ////    Uart_Char=UART_UartGetChar();
2157:.\BLEApplication.c **** //    CYBLE_GATTS_HANDLE_VALUE_NTF_T      uartTxDataNtf;
2158:.\BLEApplication.c ****     
2159:.\BLEApplication.c ****     /* Create a new notification packet */
2160:.\BLEApplication.c ****     CYBLE_GATTS_HANDLE_VALUE_NTF_T notificationPacket;
2161:.\BLEApplication.c **** //    CYBLE_API_RESULT_T API_RESULT;
2162:.\BLEApplication.c ****     /* Update Notification packet with the data.
2163:.\BLEApplication.c ****      * Maximum data which can be sent is equal to (Negotiated MTU - 3) bytes.
2164:.\BLEApplication.c ****      */
2165:.\BLEApplication.c ****     notificationPacket.attrHandle = CYBLE_TROUGHPUT_SERVICE_CUSTOM_CHARACTERISTIC_CHAR_HANDLE;
 816              		.loc 1 2165 0
 817 0004 01AB     		add	r3, sp, #4
 818 0006 0E22     		mov	r2, #14
 819 0008 1A81     		strh	r2, [r3, #8]
2166:.\BLEApplication.c ****     notificationPacket.value.val = val;   
 820              		.loc 1 2166 0
 821 000a 0190     		str	r0, [sp, #4]
2167:.\BLEApplication.c ****     notificationPacket.value.len = len - 3;
 822              		.loc 1 2167 0
 823 000c 0339     		sub	r1, r1, #3
 824              	.LVL103:
 825 000e 9980     		strh	r1, [r3, #4]
2168:.\BLEApplication.c **** //    notificationPacket.value.actualLen=0x00;
2169:.\BLEApplication.c ****     /* Report data to BLE component */
2170:.\BLEApplication.c ****     CyBle_GattsNotification(cyBle_connHandle, &notificationPacket);
 826              		.loc 1 2170 0
 827 0010 0649     		ldr	r1, .L59
 828 0012 0A78     		ldrb	r2, [r1]
 829 0014 4878     		ldrb	r0, [r1, #1]
 830              	.LVL104:
 831 0016 0002     		lsl	r0, r0, #8
 832 0018 1043     		orr	r0, r2
 833 001a 191C     		mov	r1, r3
 834 001c FFF7FEFF 		bl	CyBle_GattsNotification
 835              	.LVL105:
2171:.\BLEApplication.c ****     printf("SendNotification is %d\r\n",API_RESULT);
 836              		.loc 1 2171 0
 837 0020 0348     		ldr	r0, .L59+4
 838 0022 0021     		mov	r1, #0
 839 0024 FFF7FEFF 		bl	printf
 840              	.LVL106:
ARM GAS  C:\Users\Helon\AppData\Local\Temp\ccVeYEL4.s 			page 55


2172:.\BLEApplication.c **** }
 841              		.loc 1 2172 0
 842 0028 05B0     		add	sp, sp, #20
 843              		@ sp needed
 844 002a 00BD     		pop	{pc}
 845              	.L60:
 846              		.align	2
 847              	.L59:
 848 002c 00000000 		.word	cyBle_connHandle
 849 0030 44000000 		.word	.LC21
 850              		.cfi_endproc
 851              	.LFE48:
 852              		.size	SendNotification, .-SendNotification
 853              		.section	.text.SendData_toSlave,"ax",%progbits
 854              		.align	2
 855              		.global	SendData_toSlave
 856              		.code	16
 857              		.thumb_func
 858              		.type	SendData_toSlave, %function
 859              	SendData_toSlave:
 860              	.LFB49:
2173:.\BLEApplication.c **** /******************************************************************************
2174:.\BLEApplication.c **** * Function Name: SendData_toSlave
2175:.\BLEApplication.c **** ***************************************************************************//**
2176:.\BLEApplication.c **** * 
2177:.\BLEApplication.c **** *  MasterÁªôSlaveÂèëÊï∞ÊçÆ
2178:.\BLEApplication.c **** * \param  val:ÊåáÂêëË¶ÅÂèëÈÄÅÁöÑÊï∞ÊçÆÁöÑÈ¶ñÂú∞ÂùÄ
2179:.\BLEApplication.c **** * \param  len:Ë¶ÅÂèëÈÄÅÁöÑÊï∞ÊçÆÁöÑÈïøÂ∫¶
2180:.\BLEApplication.c **** * \return none
2181:.\BLEApplication.c **** *  
2182:.\BLEApplication.c **** * 
2183:.\BLEApplication.c **** ******************************************************************************/
2184:.\BLEApplication.c **** void SendData_toSlave(uint8_t*val,uint16_t len)
2185:.\BLEApplication.c **** {
 861              		.loc 1 2185 0
 862              		.cfi_startproc
 863              	.LVL107:
 864 0000 00B5     		push	{lr}
 865              		.cfi_def_cfa_offset 4
 866              		.cfi_offset 14, -4
 867 0002 87B0     		sub	sp, sp, #28
 868              		.cfi_def_cfa_offset 32
 869              	.LVL108:
2186:.\BLEApplication.c **** //    uint8 cccdNotifEnabledValue[] = {0x01, 0x00};
2187:.\BLEApplication.c ****     CYBLE_API_RESULT_T API_RESULT=0;
2188:.\BLEApplication.c ****     CYBLE_GATT_VALUE_T SendDataStruct =
 870              		.loc 1 2188 0
 871 0004 04AB     		add	r3, sp, #16
 872 0006 0490     		str	r0, [sp, #16]
 873 0008 9980     		strh	r1, [r3, #4]
 874 000a 0022     		mov	r2, #0
 875 000c DA80     		strh	r2, [r3, #6]
2189:.\BLEApplication.c ****     {
2190:.\BLEApplication.c ****         val,
2191:.\BLEApplication.c ****         len,
2192:.\BLEApplication.c ****         0
2193:.\BLEApplication.c ****     };
ARM GAS  C:\Users\Helon\AppData\Local\Temp\ccVeYEL4.s 			page 56


2194:.\BLEApplication.c ****     CYBLE_GATTC_WRITE_REQ_T writeRequestData;
2195:.\BLEApplication.c ****     writeRequestData.attrHandle=CYBLE_TROUGHPUT_SERVICE_CUSTOM_CHARACTERISTIC_CHAR_HANDLE;
 876              		.loc 1 2195 0
 877 000e 01AA     		add	r2, sp, #4
 878 0010 0E21     		mov	r1, #14
 879              	.LVL109:
 880 0012 1181     		strh	r1, [r2, #8]
2196:.\BLEApplication.c ****     writeRequestData.value=SendDataStruct;
 881              		.loc 1 2196 0
 882 0014 03CB     		ldmia	r3!, {r0, r1}
 883 0016 03C2     		stmia	r2!, {r0, r1}
 884              	.LVL110:
 885              	.L63:
2197:.\BLEApplication.c **** //    CyBle_GattcWriteCharacteristicValue(cyBle_connHandle,&writeRequestData);
2198:.\BLEApplication.c ****     do{
2199:.\BLEApplication.c ****         API_RESULT=CyBle_GattcWriteWithoutResponse(cyBle_connHandle,&writeRequestData);
 886              		.loc 1 2199 0 discriminator 2
 887 0018 074A     		ldr	r2, .L64
 888 001a 1378     		ldrb	r3, [r2]
 889 001c 5078     		ldrb	r0, [r2, #1]
 890 001e 0002     		lsl	r0, r0, #8
 891 0020 1843     		orr	r0, r3
 892 0022 01A9     		add	r1, sp, #4
 893 0024 FFF7FEFF 		bl	CyBle_GattcWriteWithoutResponse
 894              	.LVL111:
2200:.\BLEApplication.c ****       }
2201:.\BLEApplication.c ****     while((CYBLE_ERROR_OK != API_RESULT)  && (CYBLE_STATE_CONNECTED == cyBle_state));
 895              		.loc 1 2201 0 discriminator 2
 896 0028 0028     		cmp	r0, #0
 897 002a 03D0     		beq	.L61
 898              		.loc 1 2201 0 is_stmt 0 discriminator 1
 899 002c 034B     		ldr	r3, .L64+4
 900 002e 1B78     		ldrb	r3, [r3]
 901 0030 022B     		cmp	r3, #2
 902 0032 F1D0     		beq	.L63
 903              	.L61:
2202:.\BLEApplication.c ****     
2203:.\BLEApplication.c ****     
2204:.\BLEApplication.c **** }
 904              		.loc 1 2204 0 is_stmt 1
 905 0034 07B0     		add	sp, sp, #28
 906              		@ sp needed
 907 0036 00BD     		pop	{pc}
 908              	.L65:
 909              		.align	2
 910              	.L64:
 911 0038 00000000 		.word	cyBle_connHandle
 912 003c 00000000 		.word	cyBle_state
 913              		.cfi_endproc
 914              	.LFE49:
 915              		.size	SendData_toSlave, .-SendData_toSlave
 916              		.section	.text.Connect_Device,"ax",%progbits
 917              		.align	2
 918              		.global	Connect_Device
 919              		.code	16
 920              		.thumb_func
 921              		.type	Connect_Device, %function
ARM GAS  C:\Users\Helon\AppData\Local\Temp\ccVeYEL4.s 			page 57


 922              	Connect_Device:
 923              	.LFB51:
2205:.\BLEApplication.c **** /******************************************************************************
2206:.\BLEApplication.c **** * Function Name: Slave_UartHandler
2207:.\BLEApplication.c **** ***************************************************************************//**
2208:.\BLEApplication.c **** * 
2209:.\BLEApplication.c **** *  Âú®Master_SlaveÊ®°Âºè‰∏ãÂ§ÑÁêÜ‰∏≤Âè£Êåá‰ª§
2210:.\BLEApplication.c **** * \param  none
2211:.\BLEApplication.c **** * \return none
2212:.\BLEApplication.c **** *  
2213:.\BLEApplication.c **** * 
2214:.\BLEApplication.c **** ******************************************************************************/
2215:.\BLEApplication.c **** void Master_Slave_UartHandler(uint8_t Role)
2216:.\BLEApplication.c **** {
2217:.\BLEApplication.c ****     uint8_t Uart_Char=0;
2218:.\BLEApplication.c ****     uint32 passkey=0;
2219:.\BLEApplication.c ****     uint32 pow;
2220:.\BLEApplication.c ****     uint8   index;
2221:.\BLEApplication.c ****     uint8   uartTxData[negotiatedMtu - 3];
2222:.\BLEApplication.c ****     CYBLE_API_RESULT_T API_RESULT=0;
2223:.\BLEApplication.c ****     uint16_t uartTxDataLength;
2224:.\BLEApplication.c ****     static uint16 uartIdleCount = UART_IDLE_TIMEOUT;
2225:.\BLEApplication.c **** //    Uart_Char=UART_UartGetChar();
2226:.\BLEApplication.c ****     CYBLE_GATTS_HANDLE_VALUE_NTF_T      uartTxDataNtf;
2227:.\BLEApplication.c ****     uartTxDataLength = UART_SpiUartGetRxBufferSize();//Âè™ÊúâËØªÂèñÂÆå‰∫ÜRX_BufferÊâçÊ∏Ö0
2228:.\BLEApplication.c **** //    UART_UartPutChar(uartTxDataLength);   
2229:.\BLEApplication.c **** //        Â§ÑÁêÜ‰∏≤Âè£‰ø°ÊÅØ,‰∏çÈááÁî®‰∏≠Êñ≠ÁöÑÊñπÂºè,ÈááÂèñ‰∏≠Êñ≠‰ºöÂΩ±ÂìçÈÄè‰º†ÈÄüÁéá
2230:.\BLEApplication.c ****     if((0!=uartTxDataLength)&&((CommandMode==THROUGHT_MODE)))
2231:.\BLEApplication.c ****     {   
2232:.\BLEApplication.c ****          #ifdef  FLOW_CONTROL//Ê≠§Â§ÑÊúÄÂ•ΩÁΩÆ‰∏ÄGPIOÂè£‰∏∫‰ΩéÁîµÂπ≥ÂëäËØâÂèëÈÄÅÊñπÂÅúÊ≠¢ÂèëÈÄÅÊï∞Ê
2233:.\BLEApplication.c ****             if(uartTxDataLength>=(UART_RX_BUFFER/4))
2234:.\BLEApplication.c ****             {
2235:.\BLEApplication.c ****                 UART_RX_INT_DISABLE();
2236:.\BLEApplication.c ****                 CTS_Write(CTS_OFF);
2237:.\BLEApplication.c ****             }
2238:.\BLEApplication.c ****             else
2239:.\BLEApplication.c ****             {
2240:.\BLEApplication.c ****                 UART_RX_INT_ENABLE();
2241:.\BLEApplication.c ****                 CTS_Write(CTS_ON);
2242:.\BLEApplication.c ****             }
2243:.\BLEApplication.c ****         #endif
2244:.\BLEApplication.c ****         if(uartTxDataLength>=negotiatedMtu-3)
2245:.\BLEApplication.c ****         {                 
2246:.\BLEApplication.c ****             uartIdleCount=UART_IDLE_TIMEOUT;
2247:.\BLEApplication.c ****             uartTxDataLength=negotiatedMtu-3;
2248:.\BLEApplication.c ****         }
2249:.\BLEApplication.c ****         else//Â¶ÇÊûúÂ∞è‰∫é20Â≠óËäÇÂàôÁ≠â‰∏™100ms,Â¶ÇÊûú100msÂêéËøòÊòØÂ∞ë‰∫é20Â≠óËäÇÂàôÈÄè‰º†Âá∫Âéª
2250:.\BLEApplication.c ****         {
2251:.\BLEApplication.c ****             if(--uartIdleCount == 0)
2252:.\BLEApplication.c ****             {
2253:.\BLEApplication.c ****                 /*uartTxDataLength remains unchanged */;
2254:.\BLEApplication.c ****             }
2255:.\BLEApplication.c ****             else
2256:.\BLEApplication.c ****             {
2257:.\BLEApplication.c ****                 uartTxDataLength = 0;
2258:.\BLEApplication.c ****             }
2259:.\BLEApplication.c ****         }
ARM GAS  C:\Users\Helon\AppData\Local\Temp\ccVeYEL4.s 			page 58


2260:.\BLEApplication.c ****         if(0!=uartTxDataLength)
2261:.\BLEApplication.c ****         {
2262:.\BLEApplication.c ****             uartIdleCount=UART_IDLE_TIMEOUT;
2263:.\BLEApplication.c **** //            UART_UartPutChar(UART_SpiUartGetRxBufferSize());
2264:.\BLEApplication.c ****             for(index=0;index<uartTxDataLength;index++)//‰∏çÁÆ°ÊòØ‰∏ªÊú∫ËøòÊòØ‰ªéÊú∫ÔºåÂú®ÈÄè‰º†Ê®°
2265:.\BLEApplication.c ****             {
2266:.\BLEApplication.c ****                 uartTxData[index] = (uint8) UART_UartGetByte();
2267:.\BLEApplication.c ****             }            
2268:.\BLEApplication.c ****             if(0==memcmp("AT+NOTIFY=0",uartTxData,11))//Âú®ÈÄè‰º†Ê®°Âºè‰∏ãÔºåÂà§Êñ≠ÊòØ‰∏çÊòØË¶ÅÈÄÄÂ
2269:.\BLEApplication.c ****             {                
2270:.\BLEApplication.c ****                 if(Role==Central) //‰∏ªÊú∫Ê®°Âºè‰∏ãÈÄÄÂá∫ÈÄè‰º†Ê®°Âºè
2271:.\BLEApplication.c ****                 {
2272:.\BLEApplication.c ****                     writeRequestData.value.val[0]=0x00;
2273:.\BLEApplication.c ****                     writeRequestData.attrHandle=CYBLE_TROUGHPUT_SERVICE_CUSTOM_CHARACTERISTIC_CLIEN
2274:.\BLEApplication.c ****                     API_RESULT=CyBle_GattcWriteCharacteristicValue(cyBle_connHandle, &writeRequestD
2275:.\BLEApplication.c ****                     if(CYBLE_ERROR_OK==API_RESULT)
2276:.\BLEApplication.c ****                     {
2277:.\BLEApplication.c ****                         CommandMode=AT_COMMAND_MODE;
2278:.\BLEApplication.c ****                         CTS_Write(CTS_OFF);
2279:.\BLEApplication.c ****                         Buffer_Length=0;
2280:.\BLEApplication.c ****                         memset(RX_BUFFER,0,sizeof(RX_BUFFER));
2281:.\BLEApplication.c ****                         printf("+MODE=AT_COMMAND_MODE\r\n");
2282:.\BLEApplication.c ****                     }
2283:.\BLEApplication.c ****                 }
2284:.\BLEApplication.c ****                 else //‰ªéÊú∫Ê®°Âºè‰∏ãÈÄÄÂá∫ÈÄè‰º†Ê®°Âºè
2285:.\BLEApplication.c ****                 {
2286:.\BLEApplication.c ****                     CommandMode=AT_COMMAND_MODE;
2287:.\BLEApplication.c ****                     CTS_Write(CTS_OFF);
2288:.\BLEApplication.c ****                     Buffer_Length=0;
2289:.\BLEApplication.c ****                     memset(RX_BUFFER,0,sizeof(RX_BUFFER));
2290:.\BLEApplication.c ****                     printf("+MODE=AT_COMMAND_MODE\r\n");
2291:.\BLEApplication.c ****                 }
2292:.\BLEApplication.c ****                 return;
2293:.\BLEApplication.c ****             }  
2294:.\BLEApplication.c ****             if(0==memcmp("AT+NOTIFY=?",uartTxData,11))//‰∏çÁÆ°‰∏ªÊú∫ËøòÊòØ‰ªéÊú∫ÔºåÂú®ÈÄè‰º†Ê®°Âºè‰
2295:.\BLEApplication.c ****             {
2296:.\BLEApplication.c ****                 Buffer_Length=0;
2297:.\BLEApplication.c ****                 memset(RX_BUFFER,0,sizeof(RX_BUFFER));
2298:.\BLEApplication.c ****                 printf("+MODE=THROUGHT_MODE\r\n");
2299:.\BLEApplication.c ****                 return;
2300:.\BLEApplication.c ****             }
2301:.\BLEApplication.c ****             else if(Peripheral==Role)//‰ªéÊú∫Áªô‰∏ªÊú∫ÂèëÈÄÅÈÄè‰º†Êï∞ÊçÆ
2302:.\BLEApplication.c ****             {
2303:.\BLEApplication.c ****                while(CyBle_GattGetBusStatus()!= CYBLE_STACK_STATE_FREE);//Âè™ÊúâÂΩìËìùÁâôÂçèËÆÆÊ†àÁ
2304:.\BLEApplication.c ****                 uartTxDataNtf.value.val  = uartTxData;
2305:.\BLEApplication.c ****                 uartTxDataNtf.value.len  = uartTxDataLength;
2306:.\BLEApplication.c ****                 uartTxDataNtf.attrHandle = CYBLE_TROUGHPUT_SERVICE_CUSTOM_CHARACTERISTIC_CHAR_HANDL
2307:.\BLEApplication.c **** //                #ifdef FLOW_CONTROL
2308:.\BLEApplication.c **** //                    UART_RX_INT_DISABLE();
2309:.\BLEApplication.c **** //                #endif
2310:.\BLEApplication.c ****                 do
2311:.\BLEApplication.c ****                 {
2312:.\BLEApplication.c ****                     API_RESULT = CyBle_GattsNotification(cyBle_connHandle, &uartTxDataNtf);
2313:.\BLEApplication.c ****                     CyBle_ProcessEvents();
2314:.\BLEApplication.c ****                 }
2315:.\BLEApplication.c ****                 while((CYBLE_ERROR_OK != API_RESULT)  && (CYBLE_STATE_CONNECTED == cyBle_state));
2316:.\BLEApplication.c **** //                testCount+=uartTxDataLength;
ARM GAS  C:\Users\Helon\AppData\Local\Temp\ccVeYEL4.s 			page 59


2317:.\BLEApplication.c ****             }
2318:.\BLEApplication.c ****             else////‰∏ªÊú∫Áªô‰ªéÊú∫ÂèëÈÄÅÈÄè‰º†Êï∞ÊçÆ
2319:.\BLEApplication.c ****             {
2320:.\BLEApplication.c ****                 #ifdef FLOW_CONTROL
2321:.\BLEApplication.c ****                     UART_RX_INT_DISABLE();
2322:.\BLEApplication.c ****                 #endif
2323:.\BLEApplication.c ****                 while(CyBle_GattGetBusStatus()!= CYBLE_STACK_STATE_FREE);//Âè™ÊúâÂΩìËìùÁâôÂçèËÆÆÊ†à
2324:.\BLEApplication.c ****                 SendData_toSlave(uartTxData,uartTxDataLength);
2325:.\BLEApplication.c ****                 #ifdef FLOW_CONTROL
2326:.\BLEApplication.c ****                     UART_RX_INT_ENABLE();
2327:.\BLEApplication.c ****                 #endif
2328:.\BLEApplication.c **** 
2329:.\BLEApplication.c ****             }
2330:.\BLEApplication.c ****         }
2331:.\BLEApplication.c ****         return ;
2332:.\BLEApplication.c ****     }
2333:.\BLEApplication.c ****     else if(0!=uartTxDataLength)
2334:.\BLEApplication.c ****     {   
2335:.\BLEApplication.c ****         RxFlag=START;
2336:.\BLEApplication.c ****         if(KEYBOARD)
2337:.\BLEApplication.c ****         {
2338:.\BLEApplication.c ****            KEYBOARD=FALSE;
2339:.\BLEApplication.c ****         /*Set the passkey to zero before receiving New passkey */
2340:.\BLEApplication.c ****             passkey = 0u;
2341:.\BLEApplication.c ****             pow = 100000ul;
2342:.\BLEApplication.c ****             
2343:.\BLEApplication.c ****             /*Get 6 digit number from UART terminal*/
2344:.\BLEApplication.c ****             for(index = 0u; index < CYBLE_GAP_USER_PASSKEY_SIZE; index++)
2345:.\BLEApplication.c ****             {
2346:.\BLEApplication.c ****                 while((Uart_Char = UART_UartGetChar()) == 0);
2347:.\BLEApplication.c ****                 
2348:.\BLEApplication.c ****                 /* accept the digits that are in between the range '0' and '9'  */
2349:.\BLEApplication.c ****                 if((Uart_Char >= '0') && (Uart_Char <= '9'))  
2350:.\BLEApplication.c ****                 {
2351:.\BLEApplication.c ****                     passkey += (uint32)(Uart_Char - '0') * pow;
2352:.\BLEApplication.c ****                     pow /= 10u;
2353:.\BLEApplication.c **** //                    UART_UartPutChar(Uart_Char); 
2354:.\BLEApplication.c ****                 }
2355:.\BLEApplication.c ****                 else  /* If entered digit is not in between the rnage '0' and '9'*/
2356:.\BLEApplication.c ****                 {
2357:.\BLEApplication.c ****                     printf("+AUTHKEY=INVALID\r\n");
2358:.\BLEApplication.c ****                     break;
2359:.\BLEApplication.c ****                 }
2360:.\BLEApplication.c ****             }            
2361:.\BLEApplication.c ****             /*Send Pass key Response to to create an Authenticated Link*/
2362:.\BLEApplication.c ****             API_RESULT = CyBle_GapAuthPassKeyReply(cyBle_connHandle.bdHandle,passkey,1);         
2363:.\BLEApplication.c ****             /*Check the result of CyBle_GapAuthPassKeyReply*/
2364:.\BLEApplication.c ****             if(API_RESULT== CYBLE_ERROR_INVALID_PARAMETER)
2365:.\BLEApplication.c ****             {
2366:.\BLEApplication.c ****                 printf("CYBLE_ERROR_INVALID_PARAMETER \r\n");               
2367:.\BLEApplication.c ****             }
2368:.\BLEApplication.c ****             else if(API_RESULT==CYBLE_ERROR_MEMORY_ALLOCATION_FAILED)
2369:.\BLEApplication.c ****             {
2370:.\BLEApplication.c ****                 printf("CYBLE_ERROR_MEMORY_ALLOCATION_FAILED\r\n");
2371:.\BLEApplication.c ****             }
2372:.\BLEApplication.c ****             else if(API_RESULT==CYBLE_ERROR_NO_DEVICE_ENTITY)
2373:.\BLEApplication.c ****             {
ARM GAS  C:\Users\Helon\AppData\Local\Temp\ccVeYEL4.s 			page 60


2374:.\BLEApplication.c ****                 printf("CYBLE_ERROR_NO_DEVICE_ENTITY\r\n");
2375:.\BLEApplication.c ****             }
2376:.\BLEApplication.c ****             else if(API_RESULT==CYBLE_ERROR_OK)
2377:.\BLEApplication.c ****             {
2378:.\BLEApplication.c ****                 printf("+AUTHKEY=SUCCESFULLY\r\n");
2379:.\BLEApplication.c ****             }
2380:.\BLEApplication.c ****         }
2381:.\BLEApplication.c ****         else
2382:.\BLEApplication.c ****         {
2383:.\BLEApplication.c ****             Uart_Char=(uint8) UART_UartGetByte();
2384:.\BLEApplication.c ****             if('\n'!=Uart_Char)
2385:.\BLEApplication.c ****             {
2386:.\BLEApplication.c ****     //            if(CommandMode==THROUGHT_MODE)
2387:.\BLEApplication.c ****     //            {
2388:.\BLEApplication.c ****     //                RX_BUFFER[Buffer_Length]=Uart_Char-0x30;//ËØªÂèñ‰∏≤Âè£Êé•Êî∂ÁºìÂÜ≤Âå∫ÁöÑÊï∞Êç
2389:.\BLEApplication.c ****     //                Buffer_Length++;
2390:.\BLEApplication.c ****     //            }
2391:.\BLEApplication.c ****     //            else
2392:.\BLEApplication.c ****     //            {
2393:.\BLEApplication.c ****                     RX_BUFFER[Buffer_Length]=Uart_Char;//ËØªÂèñ‰∏≤Âè£Êé•Êî∂ÁºìÂÜ≤Âå∫ÁöÑÊï∞ÊçÆ
2394:.\BLEApplication.c ****                     Buffer_Length++;
2395:.\BLEApplication.c ****     //            }                      
2396:.\BLEApplication.c ****             }
2397:.\BLEApplication.c ****             else
2398:.\BLEApplication.c ****             {
2399:.\BLEApplication.c ****                 uartIdleCount=CRLF_TIMEOUT;
2400:.\BLEApplication.c ****                 RxFlag=OVER;
2401:.\BLEApplication.c ****             //‰∏≤Âè£Êé•Êî∂ÁöÑÊï∞ÊçÆÈïøÂ∫¶Ê∏ÖÈõ∂,‰ª•‰æø‰∏ã‰∏ÄÊù°ÂëΩ‰ª§ËøáÊù•Êó∂ËøòÊòØÂ≠òÊîæÂú®Êï∞ÁªÑ
2402:.\BLEApplication.c ****                 RX_BUFFER[Buffer_Length]=Uart_Char;//ËØªÂèñ‰∏≤Âè£Êé•Êî∂ÁºìÂÜ≤Âå∫ÁöÑÊï∞ÊçÆ          
2403:.\BLEApplication.c ****                 Parser_UartData((char*)RX_BUFFER);
2404:.\BLEApplication.c ****                 Buffer_Length=0;
2405:.\BLEApplication.c ****                 memset(RX_BUFFER,0,sizeof(RX_BUFFER));
2406:.\BLEApplication.c ****     //            if(CommandMode==THROUGHT_MODE)
2407:.\BLEApplication.c ****     //            {
2408:.\BLEApplication.c ****     //                
2409:.\BLEApplication.c ****     //                if(Role==Peripheral)
2410:.\BLEApplication.c ****     //                    SendNotification(RX_BUFFER,Buffer_Length+3);
2411:.\BLEApplication.c ****     //                else
2412:.\BLEApplication.c ****     //                    SendData_toSlave(RX_BUFFER,Buffer_Length);
2413:.\BLEApplication.c ****     //                //‰∏≤Âè£Êé•Êî∂ÁöÑÊï∞ÊçÆÈïøÂ∫¶Ê∏ÖÈõ∂,‰ª•‰æø‰∏ã‰∏ÄÊù°ÂëΩ‰ª§ËøáÊù•Êó∂ËøòÊòØÂ≠òÊî
2414:.\BLEApplication.c ****     //                Buffer_Length=0;
2415:.\BLEApplication.c ****     //                memset(RX_BUFFER,0,sizeof(RX_BUFFER));
2416:.\BLEApplication.c ****     //            }
2417:.\BLEApplication.c ****     //            else
2418:.\BLEApplication.c ****     //            {
2419:.\BLEApplication.c ****     //                
2420:.\BLEApplication.c ****     //            }
2421:.\BLEApplication.c ****             }
2422:.\BLEApplication.c ****         }    
2423:.\BLEApplication.c ****     }
2424:.\BLEApplication.c ****     else
2425:.\BLEApplication.c ****     {
2426:.\BLEApplication.c ****         if(RxFlag)//Â¶ÇÊûú‰∏≤Âè£100msÂÜÖÊ≤°ÊúâÊé•Êî∂Âà∞ÂõûËΩ¶Êç¢Ë°åÁ¨¶Êó∂ÔºåÂàôËÆ§‰∏∫ËØ•ATÂëΩ‰ª§Êó†
2427:.\BLEApplication.c ****         {
2428:.\BLEApplication.c ****             if(--uartIdleCount == 0)
2429:.\BLEApplication.c ****             {
2430:.\BLEApplication.c ****                 RxFlag=OVER;
ARM GAS  C:\Users\Helon\AppData\Local\Temp\ccVeYEL4.s 			page 61


2431:.\BLEApplication.c ****                 uartIdleCount=CRLF_TIMEOUT;
2432:.\BLEApplication.c ****                 Buffer_Length=0;
2433:.\BLEApplication.c ****                 memset(RX_BUFFER,0,sizeof(RX_BUFFER));
2434:.\BLEApplication.c ****                 printf("AT+ERR=7\r\n");//ATÂëΩ‰ª§Ê≤°ÊúâÂõûËΩ¶Êç¢Ë°å
2435:.\BLEApplication.c ****                 /*uartTxDataLength remains unchanged */;
2436:.\BLEApplication.c ****             }
2437:.\BLEApplication.c ****         }
2438:.\BLEApplication.c ****     }
2439:.\BLEApplication.c **** }
2440:.\BLEApplication.c **** 
2441:.\BLEApplication.c **** /******************************************************************************
2442:.\BLEApplication.c **** * Function Name: Connect_Device
2443:.\BLEApplication.c **** ***************************************************************************//**
2444:.\BLEApplication.c **** * 
2445:.\BLEApplication.c **** *  ËøûÊé•Êâ´ÊèèÂàóË°®‰∏≠ÁöÑSlaveËÆæÂ§á
2446:.\BLEApplication.c **** * \param  idx:Êâ´ÊèèÂàóË°®‰∏≠ÁöÑÁ¥¢ÂºïÂè∑
2447:.\BLEApplication.c **** * \return none
2448:.\BLEApplication.c **** *  
2449:.\BLEApplication.c **** * 
2450:.\BLEApplication.c **** ******************************************************************************/
2451:.\BLEApplication.c **** void Connect_Device(uint8_t idx)
2452:.\BLEApplication.c **** {
 924              		.loc 1 2452 0
 925              		.cfi_startproc
 926              	.LVL112:
 927 0000 F0B5     		push	{r4, r5, r6, r7, lr}
 928              		.cfi_def_cfa_offset 20
 929              		.cfi_offset 4, -20
 930              		.cfi_offset 5, -16
 931              		.cfi_offset 6, -12
 932              		.cfi_offset 7, -8
 933              		.cfi_offset 14, -4
 934 0002 85B0     		sub	sp, sp, #20
 935              		.cfi_def_cfa_offset 40
 936 0004 041C     		mov	r4, r0
 937              	.LVL113:
2453:.\BLEApplication.c ****     CYBLE_API_RESULT_T API_RESULT=0;
2454:.\BLEApplication.c ****     uint8_t i=0;
2455:.\BLEApplication.c ****     if(Role==Central)
 938              		.loc 1 2455 0
 939 0006 744B     		ldr	r3, .L84
 940 0008 5B7A     		ldrb	r3, [r3, #9]
 941 000a 012B     		cmp	r3, #1
 942 000c 00D0     		beq	.LCB883
 943 000e DDE0     		b	.L67	@long jump
 944              	.LCB883:
2456:.\BLEApplication.c ****     {
2457:.\BLEApplication.c ****         switch(idx)
 945              		.loc 1 2457 0
 946 0010 031C     		mov	r3, r0
 947 0012 313B     		sub	r3, r3, #49
 948 0014 DAB2     		uxtb	r2, r3
 949 0016 0E2A     		cmp	r2, #14
 950 0018 00D9     		bls	.LCB888
 951 001a DAE0     		b	.L66	@long jump
 952              	.LCB888:
 953 001c 9300     		lsl	r3, r2, #2
ARM GAS  C:\Users\Helon\AppData\Local\Temp\ccVeYEL4.s 			page 62


 954 001e 6F4A     		ldr	r2, .L84+4
 955 0020 D358     		ldr	r3, [r2, r3]
 956 0022 9F46     		mov	pc, r3
 957              		.section	.rodata
 958              		.align	2
 959              	.L70:
 960 0000 24000000 		.word	.L69
 961 0004 7C000000 		.word	.L71
 962 0008 D4000000 		.word	.L72
 963 000c 2C010000 		.word	.L73
 964 0010 D2010000 		.word	.L66
 965 0014 D2010000 		.word	.L66
 966 0018 D2010000 		.word	.L66
 967 001c D2010000 		.word	.L66
 968 0020 D2010000 		.word	.L66
 969 0024 D2010000 		.word	.L66
 970 0028 D2010000 		.word	.L66
 971 002c D2010000 		.word	.L66
 972 0030 D2010000 		.word	.L66
 973 0034 D2010000 		.word	.L66
 974 0038 84010000 		.word	.L74
 975              		.section	.text.Connect_Device
 976              	.L69:
2458:.\BLEApplication.c ****         {
2459:.\BLEApplication.c ****             case '1':
2460:.\BLEApplication.c ****                 API_RESULT=CyBle_GapcConnectDevice(&DeviceInfo[idx-1-0x30].DeviceList);
 977              		.loc 1 2460 0
 978 0024 051C     		mov	r5, r0
 979 0026 313D     		sub	r5, r5, #49
 980 0028 2B01     		lsl	r3, r5, #4
 981 002a 5B1B     		sub	r3, r3, r5
 982 002c 5B00     		lsl	r3, r3, #1
 983 002e 6C48     		ldr	r0, .L84+8
 984              	.LVL114:
 985 0030 1818     		add	r0, r3, r0
 986 0032 FFF7FEFF 		bl	CyBle_GapcConnectDevice
 987              	.LVL115:
 988 0036 021E     		sub	r2, r0, #0
 989              	.LVL116:
2461:.\BLEApplication.c ****                 if(CYBLE_ERROR_OK!=API_RESULT)  
 990              		.loc 1 2461 0
 991 0038 05D0     		beq	.L75
2462:.\BLEApplication.c ****                 {
2463:.\BLEApplication.c ****                     printf("AT+ERR=%d,0x%02X\r\n",idx-0x30,API_RESULT);                    
 992              		.loc 1 2463 0
 993 003a 211C     		mov	r1, r4
 994 003c 3039     		sub	r1, r1, #48
 995 003e 6948     		ldr	r0, .L84+12
 996              	.LVL117:
 997 0040 FFF7FEFF 		bl	printf
 998              	.LVL118:
 999 0044 C5E0     		b	.L66
 1000              	.LVL119:
 1001              	.L75:
2464:.\BLEApplication.c ****                 }
2465:.\BLEApplication.c ****                 else
2466:.\BLEApplication.c ****                 {
ARM GAS  C:\Users\Helon\AppData\Local\Temp\ccVeYEL4.s 			page 63


2467:.\BLEApplication.c ****                     Conn_Or_Disconn_Info.Connected_Count++;
 1002              		.loc 1 2467 0
 1003 0046 6848     		ldr	r0, .L84+16
 1004              	.LVL120:
 1005 0048 037A     		ldrb	r3, [r0, #8]
 1006 004a 0133     		add	r3, r3, #1
 1007 004c DBB2     		uxtb	r3, r3
 1008 004e 0372     		strb	r3, [r0, #8]
2468:.\BLEApplication.c ****                     Conn_Or_Disconn_Info.Connect_Idx[Conn_Or_Disconn_Info.Connected_Count-1]=idx-0x
 1009              		.loc 1 2468 0
 1010 0050 013B     		sub	r3, r3, #1
 1011 0052 303C     		sub	r4, r4, #48
 1012 0054 E4B2     		uxtb	r4, r4
 1013 0056 C454     		strb	r4, [r0, r3]
2469:.\BLEApplication.c ****                     Conn_or_Disconn_Idx=idx-0x30;
 1014              		.loc 1 2469 0
 1015 0058 5F4A     		ldr	r2, .L84
 1016 005a 9472     		strb	r4, [r2, #10]
2470:.\BLEApplication.c ****                     memcpy(Conn_Or_Disconn_Info.DeviceAddr[Conn_Or_Disconn_Info.Connected_Count-1].
 1017              		.loc 1 2470 0
 1018 005c DA00     		lsl	r2, r3, #3
 1019 005e D31A     		sub	r3, r2, r3
 1020 0060 C018     		add	r0, r0, r3
 1021 0062 2901     		lsl	r1, r5, #4
 1022 0064 4D1B     		sub	r5, r1, r5
 1023 0066 6D00     		lsl	r5, r5, #1
 1024 0068 0930     		add	r0, r0, #9
 1025 006a 5D49     		ldr	r1, .L84+8
 1026 006c 4919     		add	r1, r1, r5
 1027 006e 0622     		mov	r2, #6
 1028 0070 FFF7FEFF 		bl	memcpy
 1029              	.LVL121:
2471:.\BLEApplication.c ****                            DeviceInfo[idx-1-0x30].DeviceList.bdAddr,6);  
2472:.\BLEApplication.c ****                     printf("AT+OK\r\n");
 1030              		.loc 1 2472 0
 1031 0074 5D48     		ldr	r0, .L84+20
 1032 0076 FFF7FEFF 		bl	puts
 1033              	.LVL122:
 1034 007a AAE0     		b	.L66
 1035              	.LVL123:
 1036              	.L71:
2473:.\BLEApplication.c **** //                        CyBle_GapGetPeerBdHandle(bdHandle,&DeviceInfo[idx-1-0x30].DeviceList);
2474:.\BLEApplication.c **** //                        printf("0x%02X\r\n",*bdHandle);  
2475:.\BLEApplication.c ****                 }
2476:.\BLEApplication.c ****             break;
2477:.\BLEApplication.c ****             case '2':
2478:.\BLEApplication.c ****                 API_RESULT=CyBle_GapcConnectDevice(&DeviceInfo[idx-1-0x30].DeviceList);
 1037              		.loc 1 2478 0
 1038 007c 051C     		mov	r5, r0
 1039 007e 313D     		sub	r5, r5, #49
 1040 0080 2B01     		lsl	r3, r5, #4
 1041 0082 5B1B     		sub	r3, r3, r5
 1042 0084 5B00     		lsl	r3, r3, #1
 1043 0086 5648     		ldr	r0, .L84+8
 1044              	.LVL124:
 1045 0088 1818     		add	r0, r3, r0
 1046 008a FFF7FEFF 		bl	CyBle_GapcConnectDevice
ARM GAS  C:\Users\Helon\AppData\Local\Temp\ccVeYEL4.s 			page 64


 1047              	.LVL125:
 1048 008e 021E     		sub	r2, r0, #0
 1049              	.LVL126:
2479:.\BLEApplication.c ****                 if(CYBLE_ERROR_OK!=API_RESULT)  
 1050              		.loc 1 2479 0
 1051 0090 05D0     		beq	.L76
2480:.\BLEApplication.c ****                 {
2481:.\BLEApplication.c ****                     printf("AT+ERR=%d,0x%02X\r\n",idx-0x30,API_RESULT);                    
 1052              		.loc 1 2481 0
 1053 0092 211C     		mov	r1, r4
 1054 0094 3039     		sub	r1, r1, #48
 1055 0096 5348     		ldr	r0, .L84+12
 1056              	.LVL127:
 1057 0098 FFF7FEFF 		bl	printf
 1058              	.LVL128:
 1059 009c 99E0     		b	.L66
 1060              	.LVL129:
 1061              	.L76:
2482:.\BLEApplication.c ****                 }
2483:.\BLEApplication.c ****                 else
2484:.\BLEApplication.c ****                 {
2485:.\BLEApplication.c ****                     Conn_Or_Disconn_Info.Connected_Count++;
 1062              		.loc 1 2485 0
 1063 009e 5248     		ldr	r0, .L84+16
 1064              	.LVL130:
 1065 00a0 037A     		ldrb	r3, [r0, #8]
 1066 00a2 0133     		add	r3, r3, #1
 1067 00a4 DBB2     		uxtb	r3, r3
 1068 00a6 0372     		strb	r3, [r0, #8]
2486:.\BLEApplication.c ****                     Conn_Or_Disconn_Info.Connect_Idx[Conn_Or_Disconn_Info.Connected_Count-1]=idx-0x
 1069              		.loc 1 2486 0
 1070 00a8 013B     		sub	r3, r3, #1
 1071 00aa 303C     		sub	r4, r4, #48
 1072 00ac E4B2     		uxtb	r4, r4
 1073 00ae C454     		strb	r4, [r0, r3]
2487:.\BLEApplication.c ****                     Conn_or_Disconn_Idx=idx-0x30;
 1074              		.loc 1 2487 0
 1075 00b0 494A     		ldr	r2, .L84
 1076 00b2 9472     		strb	r4, [r2, #10]
2488:.\BLEApplication.c ****                     memcpy(Conn_Or_Disconn_Info.DeviceAddr[Conn_Or_Disconn_Info.Connected_Count-1].
 1077              		.loc 1 2488 0
 1078 00b4 DA00     		lsl	r2, r3, #3
 1079 00b6 D31A     		sub	r3, r2, r3
 1080 00b8 C018     		add	r0, r0, r3
 1081 00ba 2901     		lsl	r1, r5, #4
 1082 00bc 4D1B     		sub	r5, r1, r5
 1083 00be 6D00     		lsl	r5, r5, #1
 1084 00c0 0930     		add	r0, r0, #9
 1085 00c2 4749     		ldr	r1, .L84+8
 1086 00c4 4919     		add	r1, r1, r5
 1087 00c6 0622     		mov	r2, #6
 1088 00c8 FFF7FEFF 		bl	memcpy
 1089              	.LVL131:
2489:.\BLEApplication.c ****                            DeviceInfo[idx-1-0x30].DeviceList.bdAddr,6);
2490:.\BLEApplication.c ****                     printf("AT+OK\r\n");
 1090              		.loc 1 2490 0
 1091 00cc 4748     		ldr	r0, .L84+20
ARM GAS  C:\Users\Helon\AppData\Local\Temp\ccVeYEL4.s 			page 65


 1092 00ce FFF7FEFF 		bl	puts
 1093              	.LVL132:
 1094 00d2 7EE0     		b	.L66
 1095              	.LVL133:
 1096              	.L72:
2491:.\BLEApplication.c ****                 }
2492:.\BLEApplication.c ****             break;
2493:.\BLEApplication.c ****             case '3':
2494:.\BLEApplication.c ****                 API_RESULT=CyBle_GapcConnectDevice(&DeviceInfo[idx-1-0x30].DeviceList);
 1097              		.loc 1 2494 0
 1098 00d4 051C     		mov	r5, r0
 1099 00d6 313D     		sub	r5, r5, #49
 1100 00d8 2B01     		lsl	r3, r5, #4
 1101 00da 5B1B     		sub	r3, r3, r5
 1102 00dc 5B00     		lsl	r3, r3, #1
 1103 00de 4048     		ldr	r0, .L84+8
 1104              	.LVL134:
 1105 00e0 1818     		add	r0, r3, r0
 1106 00e2 FFF7FEFF 		bl	CyBle_GapcConnectDevice
 1107              	.LVL135:
 1108 00e6 021E     		sub	r2, r0, #0
 1109              	.LVL136:
2495:.\BLEApplication.c ****                 if(CYBLE_ERROR_OK!=API_RESULT)  
 1110              		.loc 1 2495 0
 1111 00e8 05D0     		beq	.L77
2496:.\BLEApplication.c ****                 {
2497:.\BLEApplication.c ****                     printf("AT+ERR=%d,0x%02X\r\n",idx-0x30,API_RESULT);                    
 1112              		.loc 1 2497 0
 1113 00ea 211C     		mov	r1, r4
 1114 00ec 3039     		sub	r1, r1, #48
 1115 00ee 3D48     		ldr	r0, .L84+12
 1116              	.LVL137:
 1117 00f0 FFF7FEFF 		bl	printf
 1118              	.LVL138:
 1119 00f4 6DE0     		b	.L66
 1120              	.LVL139:
 1121              	.L77:
2498:.\BLEApplication.c ****                 }
2499:.\BLEApplication.c ****                 else
2500:.\BLEApplication.c ****                 {
2501:.\BLEApplication.c ****                     Conn_Or_Disconn_Info.Connected_Count++;
 1122              		.loc 1 2501 0
 1123 00f6 3C48     		ldr	r0, .L84+16
 1124              	.LVL140:
 1125 00f8 037A     		ldrb	r3, [r0, #8]
 1126 00fa 0133     		add	r3, r3, #1
 1127 00fc DBB2     		uxtb	r3, r3
 1128 00fe 0372     		strb	r3, [r0, #8]
2502:.\BLEApplication.c ****                     Conn_Or_Disconn_Info.Connect_Idx[Conn_Or_Disconn_Info.Connected_Count-1]=idx-0x
 1129              		.loc 1 2502 0
 1130 0100 013B     		sub	r3, r3, #1
 1131 0102 303C     		sub	r4, r4, #48
 1132 0104 E4B2     		uxtb	r4, r4
 1133 0106 C454     		strb	r4, [r0, r3]
2503:.\BLEApplication.c ****                     Conn_or_Disconn_Idx=idx-0x30;
 1134              		.loc 1 2503 0
 1135 0108 334A     		ldr	r2, .L84
ARM GAS  C:\Users\Helon\AppData\Local\Temp\ccVeYEL4.s 			page 66


 1136 010a 9472     		strb	r4, [r2, #10]
2504:.\BLEApplication.c ****                     memcpy(Conn_Or_Disconn_Info.DeviceAddr[Conn_Or_Disconn_Info.Connected_Count-1].
 1137              		.loc 1 2504 0
 1138 010c DA00     		lsl	r2, r3, #3
 1139 010e D31A     		sub	r3, r2, r3
 1140 0110 C018     		add	r0, r0, r3
 1141 0112 2901     		lsl	r1, r5, #4
 1142 0114 4D1B     		sub	r5, r1, r5
 1143 0116 6D00     		lsl	r5, r5, #1
 1144 0118 0930     		add	r0, r0, #9
 1145 011a 3149     		ldr	r1, .L84+8
 1146 011c 4919     		add	r1, r1, r5
 1147 011e 0622     		mov	r2, #6
 1148 0120 FFF7FEFF 		bl	memcpy
 1149              	.LVL141:
2505:.\BLEApplication.c ****                            DeviceInfo[idx-1-0x30].DeviceList.bdAddr,6);
2506:.\BLEApplication.c ****                     printf("AT+OK\r\n");
 1150              		.loc 1 2506 0
 1151 0124 3148     		ldr	r0, .L84+20
 1152 0126 FFF7FEFF 		bl	puts
 1153              	.LVL142:
 1154 012a 52E0     		b	.L66
 1155              	.LVL143:
 1156              	.L73:
2507:.\BLEApplication.c ****                 }
2508:.\BLEApplication.c ****             break;
2509:.\BLEApplication.c ****             case '4':
2510:.\BLEApplication.c ****                 API_RESULT=CyBle_GapcConnectDevice(&DeviceInfo[idx-1-0x30].DeviceList);
 1157              		.loc 1 2510 0
 1158 012c 051C     		mov	r5, r0
 1159 012e 313D     		sub	r5, r5, #49
 1160 0130 2B01     		lsl	r3, r5, #4
 1161 0132 5B1B     		sub	r3, r3, r5
 1162 0134 5B00     		lsl	r3, r3, #1
 1163 0136 2A48     		ldr	r0, .L84+8
 1164              	.LVL144:
 1165 0138 1818     		add	r0, r3, r0
 1166 013a FFF7FEFF 		bl	CyBle_GapcConnectDevice
 1167              	.LVL145:
 1168 013e 021E     		sub	r2, r0, #0
 1169              	.LVL146:
2511:.\BLEApplication.c ****                 if(CYBLE_ERROR_OK!=API_RESULT)  
 1170              		.loc 1 2511 0
 1171 0140 05D0     		beq	.L78
2512:.\BLEApplication.c ****                 {
2513:.\BLEApplication.c ****                     printf("AT+ERR=%d,0x%02X\r\n",idx-0x30,API_RESULT);                    
 1172              		.loc 1 2513 0
 1173 0142 211C     		mov	r1, r4
 1174 0144 3039     		sub	r1, r1, #48
 1175 0146 2748     		ldr	r0, .L84+12
 1176              	.LVL147:
 1177 0148 FFF7FEFF 		bl	printf
 1178              	.LVL148:
 1179 014c 41E0     		b	.L66
 1180              	.LVL149:
 1181              	.L78:
2514:.\BLEApplication.c ****                 }
ARM GAS  C:\Users\Helon\AppData\Local\Temp\ccVeYEL4.s 			page 67


2515:.\BLEApplication.c ****                 else
2516:.\BLEApplication.c ****                 {
2517:.\BLEApplication.c ****                     Conn_Or_Disconn_Info.Connected_Count++;
 1182              		.loc 1 2517 0
 1183 014e 2648     		ldr	r0, .L84+16
 1184              	.LVL150:
 1185 0150 037A     		ldrb	r3, [r0, #8]
 1186 0152 0133     		add	r3, r3, #1
 1187 0154 DBB2     		uxtb	r3, r3
 1188 0156 0372     		strb	r3, [r0, #8]
2518:.\BLEApplication.c ****                     Conn_Or_Disconn_Info.Connect_Idx[Conn_Or_Disconn_Info.Connected_Count-1]=idx-0x
 1189              		.loc 1 2518 0
 1190 0158 013B     		sub	r3, r3, #1
 1191 015a 303C     		sub	r4, r4, #48
 1192 015c E4B2     		uxtb	r4, r4
 1193 015e C454     		strb	r4, [r0, r3]
2519:.\BLEApplication.c ****                     Conn_or_Disconn_Idx=idx-0x30;
 1194              		.loc 1 2519 0
 1195 0160 1D4A     		ldr	r2, .L84
 1196 0162 9472     		strb	r4, [r2, #10]
2520:.\BLEApplication.c ****                     memcpy(Conn_Or_Disconn_Info.DeviceAddr[Conn_Or_Disconn_Info.Connected_Count-1].
 1197              		.loc 1 2520 0
 1198 0164 DA00     		lsl	r2, r3, #3
 1199 0166 D31A     		sub	r3, r2, r3
 1200 0168 C018     		add	r0, r0, r3
 1201 016a 2901     		lsl	r1, r5, #4
 1202 016c 4D1B     		sub	r5, r1, r5
 1203 016e 6D00     		lsl	r5, r5, #1
 1204 0170 0930     		add	r0, r0, #9
 1205 0172 1B49     		ldr	r1, .L84+8
 1206 0174 4919     		add	r1, r1, r5
 1207 0176 0622     		mov	r2, #6
 1208 0178 FFF7FEFF 		bl	memcpy
 1209              	.LVL151:
2521:.\BLEApplication.c ****                            DeviceInfo[idx-1-0x30].DeviceList.bdAddr,6);
2522:.\BLEApplication.c ****                     printf("AT+OK\r\n");
 1210              		.loc 1 2522 0
 1211 017c 1B48     		ldr	r0, .L84+20
 1212 017e FFF7FEFF 		bl	puts
 1213              	.LVL152:
 1214 0182 26E0     		b	.L66
 1215              	.LVL153:
 1216              	.L74:
2523:.\BLEApplication.c ****                 }
2524:.\BLEApplication.c ****             break;
2525:.\BLEApplication.c ****             case '?':
2526:.\BLEApplication.c ****                 if(CYBLE_STATE_CONNECTED==CyBle_GetState())
 1217              		.loc 1 2526 0
 1218 0184 1A4B     		ldr	r3, .L84+24
 1219 0186 1B78     		ldrb	r3, [r3]
 1220 0188 022B     		cmp	r3, #2
 1221 018a 15D0     		beq	.L82
 1222 018c 1AE0     		b	.L83
 1223              	.LVL154:
 1224              	.L81:
2527:.\BLEApplication.c ****                 {
2528:.\BLEApplication.c ****                     for(i=0;i<Conn_Or_Disconn_Info.Connected_Count;i++)
ARM GAS  C:\Users\Helon\AppData\Local\Temp\ccVeYEL4.s 			page 68


2529:.\BLEApplication.c ****                     {
2530:.\BLEApplication.c ****                         printf("+INQ_CONN=%d,%02X%02X%02X%02X%02X%02X\r\n",
2531:.\BLEApplication.c ****                         Conn_Or_Disconn_Info.Connect_Idx[i],
 1225              		.loc 1 2531 0 discriminator 3
 1226 018e 1648     		ldr	r0, .L84+16
 1227 0190 015D     		ldrb	r1, [r0, r4]
2532:.\BLEApplication.c ****                         Conn_Or_Disconn_Info.DeviceAddr[i].bdAddr[5],
 1228              		.loc 1 2532 0 discriminator 3
 1229 0192 E300     		lsl	r3, r4, #3
 1230 0194 1B1B     		sub	r3, r3, r4
 1231 0196 C018     		add	r0, r0, r3
 1232 0198 827B     		ldrb	r2, [r0, #14]
2533:.\BLEApplication.c ****                         Conn_Or_Disconn_Info.DeviceAddr[i].bdAddr[4],
 1233              		.loc 1 2533 0 discriminator 3
 1234 019a 437B     		ldrb	r3, [r0, #13]
2534:.\BLEApplication.c ****                         Conn_Or_Disconn_Info.DeviceAddr[i].bdAddr[3],
 1235              		.loc 1 2534 0 discriminator 3
 1236 019c 077B     		ldrb	r7, [r0, #12]
2535:.\BLEApplication.c ****                         Conn_Or_Disconn_Info.DeviceAddr[i].bdAddr[2],
 1237              		.loc 1 2535 0 discriminator 3
 1238 019e C67A     		ldrb	r6, [r0, #11]
2536:.\BLEApplication.c ****                         Conn_Or_Disconn_Info.DeviceAddr[i].bdAddr[1],
 1239              		.loc 1 2536 0 discriminator 3
 1240 01a0 857A     		ldrb	r5, [r0, #10]
2537:.\BLEApplication.c ****                         Conn_Or_Disconn_Info.DeviceAddr[i].bdAddr[0]
 1241              		.loc 1 2537 0 discriminator 3
 1242 01a2 407A     		ldrb	r0, [r0, #9]
2530:.\BLEApplication.c ****                         Conn_Or_Disconn_Info.Connect_Idx[i],
 1243              		.loc 1 2530 0 discriminator 3
 1244 01a4 0097     		str	r7, [sp]
 1245 01a6 0196     		str	r6, [sp, #4]
 1246 01a8 0295     		str	r5, [sp, #8]
 1247 01aa 0390     		str	r0, [sp, #12]
 1248 01ac 1148     		ldr	r0, .L84+28
 1249 01ae FFF7FEFF 		bl	printf
 1250              	.LVL155:
2528:.\BLEApplication.c ****                     {
 1251              		.loc 1 2528 0 discriminator 3
 1252 01b2 0134     		add	r4, r4, #1
 1253              	.LVL156:
 1254 01b4 E4B2     		uxtb	r4, r4
 1255              	.LVL157:
 1256 01b6 00E0     		b	.L79
 1257              	.LVL158:
 1258              	.L82:
 1259 01b8 0024     		mov	r4, #0
 1260              	.LVL159:
 1261              	.L79:
2528:.\BLEApplication.c ****                     {
 1262              		.loc 1 2528 0 is_stmt 0 discriminator 1
 1263 01ba 0B4B     		ldr	r3, .L84+16
 1264 01bc 1B7A     		ldrb	r3, [r3, #8]
 1265 01be A342     		cmp	r3, r4
 1266 01c0 E5D8     		bhi	.L81
 1267 01c2 06E0     		b	.L66
 1268              	.LVL160:
 1269              	.L83:
ARM GAS  C:\Users\Helon\AppData\Local\Temp\ccVeYEL4.s 			page 69


2538:.\BLEApplication.c ****                       );
2539:.\BLEApplication.c ****                     }
2540:.\BLEApplication.c ****                 }
2541:.\BLEApplication.c ****                 else
2542:.\BLEApplication.c ****                 {
2543:.\BLEApplication.c ****                     printf("AT+ERR=3\r\n");//Ë°®Á§∫ÂΩìÂâçÁä∂ÊÄÅ‰∏çÊîØÊåÅËØ•ÂëΩ‰ª§
 1270              		.loc 1 2543 0 is_stmt 1
 1271 01c4 0C48     		ldr	r0, .L84+32
 1272              	.LVL161:
 1273 01c6 FFF7FEFF 		bl	puts
 1274              	.LVL162:
 1275 01ca 02E0     		b	.L66
 1276              	.LVL163:
 1277              	.L67:
2544:.\BLEApplication.c ****                 }
2545:.\BLEApplication.c ****                 
2546:.\BLEApplication.c ****             break;
2547:.\BLEApplication.c ****         }
2548:.\BLEApplication.c ****     }
2549:.\BLEApplication.c ****     else
2550:.\BLEApplication.c ****     {
2551:.\BLEApplication.c ****         printf("AT+ERR=4\r\n");//Ë°®Á§∫ÂΩìÂâçËßíËâ≤‰∏çÊîØÊåÅËØ•ÂëΩ‰ª§ 
 1278              		.loc 1 2551 0
 1279 01cc 0B48     		ldr	r0, .L84+36
 1280              	.LVL164:
 1281 01ce FFF7FEFF 		bl	puts
 1282              	.LVL165:
 1283              	.L66:
2552:.\BLEApplication.c ****     }
2553:.\BLEApplication.c **** }
 1284              		.loc 1 2553 0
 1285 01d2 05B0     		add	sp, sp, #20
 1286              		@ sp needed
 1287 01d4 F0BD     		pop	{r4, r5, r6, r7, pc}
 1288              	.L85:
 1289 01d6 C046     		.align	2
 1290              	.L84:
 1291 01d8 00000000 		.word	.LANCHOR0
 1292 01dc 00000000 		.word	.L70
 1293 01e0 00000000 		.word	DeviceInfo
 1294 01e4 60000000 		.word	.LC28
 1295 01e8 00000000 		.word	Conn_Or_Disconn_Info
 1296 01ec 74000000 		.word	.LC31
 1297 01f0 00000000 		.word	cyBle_state
 1298 01f4 7C000000 		.word	.LC34
 1299 01f8 A4000000 		.word	.LC36
 1300 01fc B0000000 		.word	.LC38
 1301              		.cfi_endproc
 1302              	.LFE51:
 1303              		.size	Connect_Device, .-Connect_Device
 1304              		.section	.text.UartBuadRate_Handler,"ax",%progbits
 1305              		.align	2
 1306              		.global	UartBuadRate_Handler
 1307              		.code	16
 1308              		.thumb_func
 1309              		.type	UartBuadRate_Handler, %function
 1310              	UartBuadRate_Handler:
ARM GAS  C:\Users\Helon\AppData\Local\Temp\ccVeYEL4.s 			page 70


 1311              	.LFB52:
2554:.\BLEApplication.c **** /******************************************************************************
2555:.\BLEApplication.c **** * Function Name: UartBuadRate_Handler
2556:.\BLEApplication.c **** ***************************************************************************//**
2557:.\BLEApplication.c **** * 
2558:.\BLEApplication.c **** *  ËÆæÂ§á‰∏≤Âè£Ê≥¢ÁâπÁéáÊàñËÄÖÊü•ËØ¢ÂΩìÂâçÁöÑ‰∏≤Âè£Ê≥¢ÁâπÁéá
2559:.\BLEApplication.c **** * \param  idx:ËÆæÁΩÆÁöÑÊ≥¢ÁâπÁéáÂÄºÊàñÊü•ËØ¢Ê≥¢ÁâπÁéáÁöÑÁä∂ÊÄÅ
2560:.\BLEApplication.c **** * \return none
2561:.\BLEApplication.c **** *  
2562:.\BLEApplication.c **** * 
2563:.\BLEApplication.c **** ******************************************************************************/
2564:.\BLEApplication.c **** void UartBuadRate_Handler(uint8_t idx)
2565:.\BLEApplication.c **** {
 1312              		.loc 1 2565 0
 1313              		.cfi_startproc
 1314              	.LVL166:
 1315 0000 10B5     		push	{r4, lr}
 1316              		.cfi_def_cfa_offset 8
 1317              		.cfi_offset 4, -8
 1318              		.cfi_offset 14, -4
 1319 0002 041C     		mov	r4, r0
2566:.\BLEApplication.c ****     switch(idx)
 1320              		.loc 1 2566 0
 1321 0004 031C     		mov	r3, r0
 1322 0006 303B     		sub	r3, r3, #48
 1323 0008 DAB2     		uxtb	r2, r3
 1324 000a 312A     		cmp	r2, #49
 1325 000c 00D9     		bls	.LCB1261
 1326 000e E0E1     		b	.L86	@long jump
 1327              	.LCB1261:
 1328 0010 9300     		lsl	r3, r2, #2
 1329 0012 C04A     		ldr	r2, .L157
 1330 0014 D358     		ldr	r3, [r2, r3]
 1331 0016 9F46     		mov	pc, r3
 1332              		.section	.rodata
 1333              		.align	2
 1334              	.L89:
 1335 003c 18000000 		.word	.L88
 1336 0040 44000000 		.word	.L90
 1337 0044 70000000 		.word	.L91
 1338 0048 9C000000 		.word	.L92
 1339 004c C8000000 		.word	.L93
 1340 0050 F4000000 		.word	.L94
 1341 0054 20010000 		.word	.L95
 1342 0058 4C010000 		.word	.L96
 1343 005c 78010000 		.word	.L97
 1344 0060 A4010000 		.word	.L98
 1345 0064 D2030000 		.word	.L86
 1346 0068 D2030000 		.word	.L86
 1347 006c D2030000 		.word	.L86
 1348 0070 D2030000 		.word	.L86
 1349 0074 D2030000 		.word	.L86
 1350 0078 FC010000 		.word	.L99
 1351 007c D2030000 		.word	.L86
 1352 0080 D0010000 		.word	.L100
 1353 0084 D2030000 		.word	.L86
 1354 0088 D2030000 		.word	.L86
ARM GAS  C:\Users\Helon\AppData\Local\Temp\ccVeYEL4.s 			page 71


 1355 008c D2030000 		.word	.L86
 1356 0090 D2030000 		.word	.L86
 1357 0094 D2030000 		.word	.L86
 1358 0098 D2030000 		.word	.L86
 1359 009c D2030000 		.word	.L86
 1360 00a0 D2030000 		.word	.L86
 1361 00a4 D2030000 		.word	.L86
 1362 00a8 D2030000 		.word	.L86
 1363 00ac D2030000 		.word	.L86
 1364 00b0 D2030000 		.word	.L86
 1365 00b4 D2030000 		.word	.L86
 1366 00b8 D2030000 		.word	.L86
 1367 00bc D2030000 		.word	.L86
 1368 00c0 D2030000 		.word	.L86
 1369 00c4 D2030000 		.word	.L86
 1370 00c8 D2030000 		.word	.L86
 1371 00cc D2030000 		.word	.L86
 1372 00d0 D2030000 		.word	.L86
 1373 00d4 D2030000 		.word	.L86
 1374 00d8 D2030000 		.word	.L86
 1375 00dc D2030000 		.word	.L86
 1376 00e0 D2030000 		.word	.L86
 1377 00e4 D2030000 		.word	.L86
 1378 00e8 D2030000 		.word	.L86
 1379 00ec D2030000 		.word	.L86
 1380 00f0 D2030000 		.word	.L86
 1381 00f4 D2030000 		.word	.L86
 1382 00f8 D2030000 		.word	.L86
 1383 00fc D2030000 		.word	.L86
 1384 0100 D0010000 		.word	.L100
 1385              		.section	.text.UartBuadRate_Handler
 1386              	.L88:
2567:.\BLEApplication.c ****     {
2568:.\BLEApplication.c **** //                1200
2569:.\BLEApplication.c ****         case '0':                     
2570:.\BLEApplication.c ****              printf("AT+BAUD=<1200>\r\n");
 1387              		.loc 1 2570 0
 1388 0018 BF48     		ldr	r0, .L157+4
 1389              	.LVL167:
 1390 001a FFF7FEFF 		bl	puts
 1391              	.LVL168:
2571:.\BLEApplication.c ****              printf("OK\r\n");
 1392              		.loc 1 2571 0
 1393 001e BF48     		ldr	r0, .L157+8
 1394 0020 FFF7FEFF 		bl	puts
 1395              	.LVL169:
 1396              	.L102:
2572:.\BLEApplication.c ****              while((UART_SpiUartGetTxBufferSize() + UART_GET_TX_FIFO_SR_VALID) != 0);//Á≠âÂæÖ‰∏≤Âè£
 1397              		.loc 1 2572 0 discriminator 5
 1398 0024 FFF7FEFF 		bl	UART_SpiUartGetTxBufferSize
 1399              	.LVL170:
 1400 0028 BD4B     		ldr	r3, .L157+12
 1401 002a 1B68     		ldr	r3, [r3]
 1402 002c 8022     		mov	r2, #128
 1403 002e 1202     		lsl	r2, r2, #8
 1404 0030 1340     		and	r3, r2
 1405 0032 00D0     		beq	.L101
ARM GAS  C:\Users\Helon\AppData\Local\Temp\ccVeYEL4.s 			page 72


 1406              		.loc 1 2572 0 is_stmt 0
 1407 0034 0123     		mov	r3, #1
 1408              	.L101:
 1409              		.loc 1 2572 0 discriminator 4
 1410 0036 C318     		add	r3, r0, r3
 1411 0038 002B     		cmp	r3, #0
 1412 003a F3D1     		bne	.L102
2573:.\BLEApplication.c ****              SetUartConfiguration(BAUD_1200);
2574:.\BLEApplication.c ****              Baud_rate_idx=idx;
 1413              		.loc 1 2574 0 is_stmt 1
 1414 003c 7833     		add	r3, r3, #120
 1415 003e B94A     		ldr	r2, .L157+16
 1416 0040 D454     		strb	r4, [r2, r3]
2575:.\BLEApplication.c ****         break;
 1417              		.loc 1 2575 0
 1418 0042 C6E1     		b	.L86
 1419              	.LVL171:
 1420              	.L90:
2576:.\BLEApplication.c **** //                2400
2577:.\BLEApplication.c ****         case '1':
2578:.\BLEApplication.c ****              printf("AT+BAUD=<2400>\r\n");
 1421              		.loc 1 2578 0
 1422 0044 B848     		ldr	r0, .L157+20
 1423              	.LVL172:
 1424 0046 FFF7FEFF 		bl	puts
 1425              	.LVL173:
2579:.\BLEApplication.c ****              printf("OK\r\n");
 1426              		.loc 1 2579 0
 1427 004a B448     		ldr	r0, .L157+8
 1428 004c FFF7FEFF 		bl	puts
 1429              	.LVL174:
 1430              	.L104:
2580:.\BLEApplication.c ****              while((UART_SpiUartGetTxBufferSize() + UART_GET_TX_FIFO_SR_VALID) != 0);//Á≠âÂæÖ‰∏≤Âè£
 1431              		.loc 1 2580 0 discriminator 5
 1432 0050 FFF7FEFF 		bl	UART_SpiUartGetTxBufferSize
 1433              	.LVL175:
 1434 0054 B24B     		ldr	r3, .L157+12
 1435 0056 1B68     		ldr	r3, [r3]
 1436 0058 8022     		mov	r2, #128
 1437 005a 1202     		lsl	r2, r2, #8
 1438 005c 1340     		and	r3, r2
 1439 005e 00D0     		beq	.L103
 1440              		.loc 1 2580 0 is_stmt 0
 1441 0060 0123     		mov	r3, #1
 1442              	.L103:
 1443              		.loc 1 2580 0 discriminator 4
 1444 0062 C318     		add	r3, r0, r3
 1445 0064 002B     		cmp	r3, #0
 1446 0066 F3D1     		bne	.L104
2581:.\BLEApplication.c ****              SetUartConfiguration(BAUD_2400);
2582:.\BLEApplication.c ****              Baud_rate_idx=idx;
 1447              		.loc 1 2582 0 is_stmt 1
 1448 0068 7833     		add	r3, r3, #120
 1449 006a AE4A     		ldr	r2, .L157+16
 1450 006c D454     		strb	r4, [r2, r3]
2583:.\BLEApplication.c ****         break;
 1451              		.loc 1 2583 0
ARM GAS  C:\Users\Helon\AppData\Local\Temp\ccVeYEL4.s 			page 73


 1452 006e B0E1     		b	.L86
 1453              	.LVL176:
 1454              	.L91:
2584:.\BLEApplication.c **** //                4800
2585:.\BLEApplication.c ****         case '2':
2586:.\BLEApplication.c ****              printf("AT+BAUD=<4800>\r\n");
 1455              		.loc 1 2586 0
 1456 0070 AE48     		ldr	r0, .L157+24
 1457              	.LVL177:
 1458 0072 FFF7FEFF 		bl	puts
 1459              	.LVL178:
2587:.\BLEApplication.c ****              printf("OK\r\n");
 1460              		.loc 1 2587 0
 1461 0076 A948     		ldr	r0, .L157+8
 1462 0078 FFF7FEFF 		bl	puts
 1463              	.LVL179:
 1464              	.L106:
2588:.\BLEApplication.c ****              while((UART_SpiUartGetTxBufferSize() + UART_GET_TX_FIFO_SR_VALID) != 0);//Á≠âÂæÖ‰∏≤Âè£
 1465              		.loc 1 2588 0 discriminator 5
 1466 007c FFF7FEFF 		bl	UART_SpiUartGetTxBufferSize
 1467              	.LVL180:
 1468 0080 A74B     		ldr	r3, .L157+12
 1469 0082 1B68     		ldr	r3, [r3]
 1470 0084 8022     		mov	r2, #128
 1471 0086 1202     		lsl	r2, r2, #8
 1472 0088 1340     		and	r3, r2
 1473 008a 00D0     		beq	.L105
 1474              		.loc 1 2588 0 is_stmt 0
 1475 008c 0123     		mov	r3, #1
 1476              	.L105:
 1477              		.loc 1 2588 0 discriminator 4
 1478 008e C318     		add	r3, r0, r3
 1479 0090 002B     		cmp	r3, #0
 1480 0092 F3D1     		bne	.L106
2589:.\BLEApplication.c ****              SetUartConfiguration(BAUD_4800);
2590:.\BLEApplication.c ****              Baud_rate_idx=idx;
 1481              		.loc 1 2590 0 is_stmt 1
 1482 0094 7833     		add	r3, r3, #120
 1483 0096 A34A     		ldr	r2, .L157+16
 1484 0098 D454     		strb	r4, [r2, r3]
2591:.\BLEApplication.c ****         break;
 1485              		.loc 1 2591 0
 1486 009a 9AE1     		b	.L86
 1487              	.LVL181:
 1488              	.L92:
2592:.\BLEApplication.c **** //                9600
2593:.\BLEApplication.c ****         case '3':
2594:.\BLEApplication.c ****              printf("AT+BAUD=<9600>\r\n");
 1489              		.loc 1 2594 0
 1490 009c A448     		ldr	r0, .L157+28
 1491              	.LVL182:
 1492 009e FFF7FEFF 		bl	puts
 1493              	.LVL183:
2595:.\BLEApplication.c ****              printf("OK\r\n");
 1494              		.loc 1 2595 0
 1495 00a2 9E48     		ldr	r0, .L157+8
 1496 00a4 FFF7FEFF 		bl	puts
ARM GAS  C:\Users\Helon\AppData\Local\Temp\ccVeYEL4.s 			page 74


 1497              	.LVL184:
 1498              	.L108:
2596:.\BLEApplication.c ****              while((UART_SpiUartGetTxBufferSize() + UART_GET_TX_FIFO_SR_VALID) != 0);//Á≠âÂæÖ‰∏≤Âè£
 1499              		.loc 1 2596 0 discriminator 5
 1500 00a8 FFF7FEFF 		bl	UART_SpiUartGetTxBufferSize
 1501              	.LVL185:
 1502 00ac 9C4B     		ldr	r3, .L157+12
 1503 00ae 1B68     		ldr	r3, [r3]
 1504 00b0 8022     		mov	r2, #128
 1505 00b2 1202     		lsl	r2, r2, #8
 1506 00b4 1340     		and	r3, r2
 1507 00b6 00D0     		beq	.L107
 1508              		.loc 1 2596 0 is_stmt 0
 1509 00b8 0123     		mov	r3, #1
 1510              	.L107:
 1511              		.loc 1 2596 0 discriminator 4
 1512 00ba C318     		add	r3, r0, r3
 1513 00bc 002B     		cmp	r3, #0
 1514 00be F3D1     		bne	.L108
2597:.\BLEApplication.c ****              SetUartConfiguration(BAUD_9600);
2598:.\BLEApplication.c ****              Baud_rate_idx=idx;
 1515              		.loc 1 2598 0 is_stmt 1
 1516 00c0 7833     		add	r3, r3, #120
 1517 00c2 984A     		ldr	r2, .L157+16
 1518 00c4 D454     		strb	r4, [r2, r3]
2599:.\BLEApplication.c ****         break;
 1519              		.loc 1 2599 0
 1520 00c6 84E1     		b	.L86
 1521              	.LVL186:
 1522              	.L93:
2600:.\BLEApplication.c ****         case '4':
2601:.\BLEApplication.c ****              printf("AT+BAUD=<19200>\r\n");
 1523              		.loc 1 2601 0
 1524 00c8 9A48     		ldr	r0, .L157+32
 1525              	.LVL187:
 1526 00ca FFF7FEFF 		bl	puts
 1527              	.LVL188:
2602:.\BLEApplication.c ****              printf("OK\r\n");
 1528              		.loc 1 2602 0
 1529 00ce 9348     		ldr	r0, .L157+8
 1530 00d0 FFF7FEFF 		bl	puts
 1531              	.LVL189:
 1532              	.L110:
2603:.\BLEApplication.c ****              while((UART_SpiUartGetTxBufferSize() + UART_GET_TX_FIFO_SR_VALID) != 0);//Á≠âÂæÖ‰∏≤Âè£
 1533              		.loc 1 2603 0 discriminator 5
 1534 00d4 FFF7FEFF 		bl	UART_SpiUartGetTxBufferSize
 1535              	.LVL190:
 1536 00d8 914B     		ldr	r3, .L157+12
 1537 00da 1B68     		ldr	r3, [r3]
 1538 00dc 8022     		mov	r2, #128
 1539 00de 1202     		lsl	r2, r2, #8
 1540 00e0 1340     		and	r3, r2
 1541 00e2 00D0     		beq	.L109
 1542              		.loc 1 2603 0 is_stmt 0
 1543 00e4 0123     		mov	r3, #1
 1544              	.L109:
 1545              		.loc 1 2603 0 discriminator 4
ARM GAS  C:\Users\Helon\AppData\Local\Temp\ccVeYEL4.s 			page 75


 1546 00e6 C318     		add	r3, r0, r3
 1547 00e8 002B     		cmp	r3, #0
 1548 00ea F3D1     		bne	.L110
2604:.\BLEApplication.c ****              SetUartConfiguration(BAUD_19200);
2605:.\BLEApplication.c ****              Baud_rate_idx=idx;
 1549              		.loc 1 2605 0 is_stmt 1
 1550 00ec 7833     		add	r3, r3, #120
 1551 00ee 8D4A     		ldr	r2, .L157+16
 1552 00f0 D454     		strb	r4, [r2, r3]
2606:.\BLEApplication.c ****         break;
 1553              		.loc 1 2606 0
 1554 00f2 6EE1     		b	.L86
 1555              	.LVL191:
 1556              	.L94:
2607:.\BLEApplication.c ****         case '5':
2608:.\BLEApplication.c ****              printf("AT+BAUD=<38400>\r\n");
 1557              		.loc 1 2608 0
 1558 00f4 9048     		ldr	r0, .L157+36
 1559              	.LVL192:
 1560 00f6 FFF7FEFF 		bl	puts
 1561              	.LVL193:
2609:.\BLEApplication.c ****              printf("OK\r\n");
 1562              		.loc 1 2609 0
 1563 00fa 8848     		ldr	r0, .L157+8
 1564 00fc FFF7FEFF 		bl	puts
 1565              	.LVL194:
 1566              	.L112:
2610:.\BLEApplication.c ****              while((UART_SpiUartGetTxBufferSize() + UART_GET_TX_FIFO_SR_VALID) != 0);//Á≠âÂæÖ‰∏≤Âè£
 1567              		.loc 1 2610 0 discriminator 5
 1568 0100 FFF7FEFF 		bl	UART_SpiUartGetTxBufferSize
 1569              	.LVL195:
 1570 0104 864B     		ldr	r3, .L157+12
 1571 0106 1B68     		ldr	r3, [r3]
 1572 0108 8022     		mov	r2, #128
 1573 010a 1202     		lsl	r2, r2, #8
 1574 010c 1340     		and	r3, r2
 1575 010e 00D0     		beq	.L111
 1576              		.loc 1 2610 0 is_stmt 0
 1577 0110 0123     		mov	r3, #1
 1578              	.L111:
 1579              		.loc 1 2610 0 discriminator 4
 1580 0112 C318     		add	r3, r0, r3
 1581 0114 002B     		cmp	r3, #0
 1582 0116 F3D1     		bne	.L112
2611:.\BLEApplication.c ****              SetUartConfiguration(BAUD_38400);
2612:.\BLEApplication.c ****              Baud_rate_idx=idx;
 1583              		.loc 1 2612 0 is_stmt 1
 1584 0118 7833     		add	r3, r3, #120
 1585 011a 824A     		ldr	r2, .L157+16
 1586 011c D454     		strb	r4, [r2, r3]
2613:.\BLEApplication.c ****         break;
 1587              		.loc 1 2613 0
 1588 011e 58E1     		b	.L86
 1589              	.LVL196:
 1590              	.L95:
2614:.\BLEApplication.c **** //                57600
2615:.\BLEApplication.c ****         case '6':
ARM GAS  C:\Users\Helon\AppData\Local\Temp\ccVeYEL4.s 			page 76


2616:.\BLEApplication.c ****              printf("AT+BAUD=<57600>\r\n");
 1591              		.loc 1 2616 0
 1592 0120 8648     		ldr	r0, .L157+40
 1593              	.LVL197:
 1594 0122 FFF7FEFF 		bl	puts
 1595              	.LVL198:
2617:.\BLEApplication.c ****              printf("OK\r\n");
 1596              		.loc 1 2617 0
 1597 0126 7D48     		ldr	r0, .L157+8
 1598 0128 FFF7FEFF 		bl	puts
 1599              	.LVL199:
 1600              	.L114:
2618:.\BLEApplication.c ****              while((UART_SpiUartGetTxBufferSize() + UART_GET_TX_FIFO_SR_VALID) != 0);//Á≠âÂæÖ‰∏≤Âè£
 1601              		.loc 1 2618 0 discriminator 5
 1602 012c FFF7FEFF 		bl	UART_SpiUartGetTxBufferSize
 1603              	.LVL200:
 1604 0130 7B4B     		ldr	r3, .L157+12
 1605 0132 1B68     		ldr	r3, [r3]
 1606 0134 8022     		mov	r2, #128
 1607 0136 1202     		lsl	r2, r2, #8
