ARM GAS  C:\Users\Helon\AppData\Local\Temp\ccFTP8XO.s 			page 1


   1              		.cpu cortex-m0
   2              		.fpu softvfp
   3              		.eabi_attribute 20, 1
   4              		.eabi_attribute 21, 1
   5              		.eabi_attribute 23, 3
   6              		.eabi_attribute 24, 1
   7              		.eabi_attribute 25, 1
   8              		.eabi_attribute 26, 1
   9              		.eabi_attribute 30, 1
  10              		.eabi_attribute 34, 0
  11              		.eabi_attribute 18, 4
  12              		.code	16
  13              		.file	"BLEClient.c"
  14              		.text
  15              	.Ltext0:
  16              		.cfi_sections	.debug_frame
  17              		.section	.text.Parser_adv_data_scan_data,"ax",%progbits
  18              		.align	2
  19              		.global	Parser_adv_data_scan_data
  20              		.code	16
  21              		.thumb_func
  22              		.type	Parser_adv_data_scan_data, %function
  23              	Parser_adv_data_scan_data:
  24              	.LFB38:
  25              		.file 1 ".\\BLEClient.c"
   1:.\BLEClient.c **** /* ========================================
   2:.\BLEClient.c ****  *
   3:.\BLEClient.c ****  * Copyright YOUR COMPANY, THE YEAR
   4:.\BLEClient.c ****  * All Rights Reserved
   5:.\BLEClient.c ****  * UNPUBLISHED, LICENSED SOFTWARE.
   6:.\BLEClient.c ****  *
   7:.\BLEClient.c ****  * CONFIDENTIAL AND PROPRIETARY INFORMATION
   8:.\BLEClient.c ****  * WHICH IS THE PROPERTY OF your company.
   9:.\BLEClient.c ****  *
  10:.\BLEClient.c ****  * ========================================
  11:.\BLEClient.c **** */
  12:.\BLEClient.c **** #include <project.h> 
  13:.\BLEClient.c **** #include "BLEClient.h"
  14:.\BLEClient.c **** #include "BLEApplication.h"
  15:.\BLEClient.c **** #include <stdio.h>
  16:.\BLEClient.c **** /***************************************
  17:.\BLEClient.c **** * ÂÖ®Â±ÄÂèòÈáè
  18:.\BLEClient.c **** ***************************************/
  19:.\BLEClient.c **** //uint8_t StartScan=FALSE;
  20:.\BLEClient.c **** //uint8_t DeviceList[DeviceListCount]={0};
  21:.\BLEClient.c **** CYBLE_DEVICE_INFO DeviceInfo[DeviceListCount];
  22:.\BLEClient.c **** //  ËÆ°Êï∞Êâ´ÊèèÂà∞ÁöÑBLEËÆæÂ§á
  23:.\BLEClient.c **** uint8_t DeviceCount=0;
  24:.\BLEClient.c **** uint8_t flag=0;
  25:.\BLEClient.c **** extern CYBLE_GATTC_WRITE_REQ_T writeRequestData;
  26:.\BLEClient.c **** extern uint8_t STOP_SCAN_FLAG;
  27:.\BLEClient.c **** /******************************************************************************
  28:.\BLEClient.c **** * Function Name: HandleScanDevices
  29:.\BLEClient.c **** ***************************************************************************//**
  30:.\BLEClient.c **** * 
  31:.\BLEClient.c **** *  Â§ÑÁêÜÊâ´ÊèèÂà∞ÁöÑÂë®ËæπBLEËÆæÂ§á
  32:.\BLEClient.c **** * 
ARM GAS  C:\Users\Helon\AppData\Local\Temp\ccFTP8XO.s 			page 2


  33:.\BLEClient.c **** * \return
  34:.\BLEClient.c **** *  None
  35:.\BLEClient.c **** * 
  36:.\BLEClient.c **** ******************************************************************************/
  37:.\BLEClient.c **** void HandleScanDevices(CYBLE_GAPC_ADV_REPORT_T* ScanReport)
  38:.\BLEClient.c **** {
  39:.\BLEClient.c **** //    printf("Advertising or Scan Response Data is 0x%02X%02X%02X%02X%02X%02X\r\n",
  40:.\BLEClient.c **** //            );
  41:.\BLEClient.c ****     uint8_t i=0;
  42:.\BLEClient.c ****     CYBLE_API_RESULT_T API_RESULT=0;
  43:.\BLEClient.c **** //    Á¨¨‰∏ÄÊ¨°Êâ´ÊèèÊó∂,‰øùÂ≠òÁ¨¨‰∏ÄÊ¨°Êâ´ÊèèÂà∞ÁöÑËÆæÂ§áÂú∞ÂùÄ
  44:.\BLEClient.c ****     if(flag^1)
  45:.\BLEClient.c ****     {           
  46:.\BLEClient.c ****         flag=1;   
  47:.\BLEClient.c ****         if(CYBLE_GAPC_CONN_UNDIRECTED_ADV==ScanReport->eventType)   
  48:.\BLEClient.c ****         {
  49:.\BLEClient.c ****             DeviceCount++;
  50:.\BLEClient.c ****             memcpy(DeviceInfo[DeviceCount-1].DeviceList.bdAddr,ScanReport->peerBdAddr,6);
  51:.\BLEClient.c ****             if(CYBLE_GAP_ADDR_TYPE_PUBLIC==ScanReport->peerAddrType)
  52:.\BLEClient.c ****             {
  53:.\BLEClient.c ****                 DeviceInfo[DeviceCount-1].DeviceList.type=CYBLE_GAP_ADDR_TYPE_PUBLIC;
  54:.\BLEClient.c **** //                DeviceInfo[DeviceCount-1].DeviceList.type='P';
  55:.\BLEClient.c ****             }
  56:.\BLEClient.c ****             else
  57:.\BLEClient.c ****             {
  58:.\BLEClient.c ****                 DeviceInfo[DeviceCount-1].DeviceList.type=CYBLE_GAP_ADDR_TYPE_RANDOM;
  59:.\BLEClient.c **** //                DeviceInfo[DeviceCount-1].DeviceList.type='R';
  60:.\BLEClient.c ****             }
  61:.\BLEClient.c ****             DeviceInfo[DeviceCount-1].idx=DeviceCount;
  62:.\BLEClient.c ****             DeviceInfo[DeviceCount-1].rssi=ScanReport->rssi;
  63:.\BLEClient.c ****             memcpy(DeviceInfo[DeviceCount-1].DeviceList.bdAddr,ScanReport->peerBdAddr,6);
  64:.\BLEClient.c ****             Parser_adv_data_scan_data(ScanReport->data,ScanReport->dataLen);
  65:.\BLEClient.c ****             if(DeviceInfo[DeviceCount-1].ScanName)
  66:.\BLEClient.c ****             {
  67:.\BLEClient.c ****                 DeviceInfo[DeviceCount-1].ScanName=FALSE;
  68:.\BLEClient.c ****             }
  69:.\BLEClient.c ****             else
  70:.\BLEClient.c ****             {
  71:.\BLEClient.c ****                 memset(DeviceInfo[DeviceCount-1].DeviceName,0,sizeof(DeviceInfo[DeviceCount-1].Devi
  72:.\BLEClient.c ****                 memcpy(DeviceInfo[DeviceCount-1].DeviceName,"NULL",sizeof("NULL"));
  73:.\BLEClient.c ****             }
  74:.\BLEClient.c **** //            printf("+SCAN=%d,%d,%c,%02X%02X%02X%02X%02X%02X,%s\r\n",
  75:.\BLEClient.c **** //                    DeviceInfo[DeviceCount-1].idx,
  76:.\BLEClient.c **** //                    DeviceInfo[DeviceCount-1].rssi,
  77:.\BLEClient.c **** //                    PUBLIC_OR_RANDOM(DeviceInfo[DeviceCount-1].DeviceList.type),
  78:.\BLEClient.c **** //                    DeviceInfo[DeviceCount-1].DeviceList.bdAddr[5],
  79:.\BLEClient.c **** //                    DeviceInfo[DeviceCount-1].DeviceList.bdAddr[4],
  80:.\BLEClient.c **** //                    DeviceInfo[DeviceCount-1].DeviceList.bdAddr[3],
  81:.\BLEClient.c **** //                    DeviceInfo[DeviceCount-1].DeviceList.bdAddr[2],
  82:.\BLEClient.c **** //                    DeviceInfo[DeviceCount-1].DeviceList.bdAddr[1],
  83:.\BLEClient.c **** //                    DeviceInfo[DeviceCount-1].DeviceList.bdAddr[0],
  84:.\BLEClient.c **** //                    DeviceInfo[DeviceCount-1].DeviceName
  85:.\BLEClient.c **** //                    
  86:.\BLEClient.c **** //                  );
  87:.\BLEClient.c ****             if(0==strncmp((char*)DeviceInfo[DeviceCount-1].DeviceName,"BLEBLE-105",10))//ÊâæÂà∞Ëøô‰
  88:.\BLEClient.c ****             {
  89:.\BLEClient.c ****                 CyBle_GapcStopScan();   
ARM GAS  C:\Users\Helon\AppData\Local\Temp\ccFTP8XO.s 			page 3


  90:.\BLEClient.c **** //                CyDelay(2000);
  91:.\BLEClient.c ****                 STOP_SCAN_FLAG=TRUE;
  92:.\BLEClient.c **** //                printf("%d\r\n",CyBle_GetState());                             
  93:.\BLEClient.c ****             }
  94:.\BLEClient.c ****             while((UART_SpiUartGetTxBufferSize() + UART_GET_TX_FIFO_SR_VALID) != 0);//Á≠âÂæÖ‰∏≤Âè£Á
  95:.\BLEClient.c ****             return;
  96:.\BLEClient.c ****         }
  97:.\BLEClient.c ****         
  98:.\BLEClient.c ****         
  99:.\BLEClient.c ****     }
 100:.\BLEClient.c **** //    Âæ™ÁéØÊØîËæÉÊâ´ÊèèÂà∞ÁöÑÂú∞ÂùÄÊòØ‰∏çÊòØ‰πãÂâçÊâ´ÊèèËøáÁöÑ,Â¶ÇÊûúÊúâ‰πãÂâçÊâ´ÊèèËøáÁöÑÂú∞ÂùÄÔº
 101:.\BLEClient.c ****     for(i=0;i<DeviceCount;i++)
 102:.\BLEClient.c ****     {        
 103:.\BLEClient.c ****         if(memcmp(ScanReport->peerBdAddr,DeviceInfo[i].DeviceList.bdAddr,6)==0)
 104:.\BLEClient.c ****         {
 105:.\BLEClient.c **** //            NewAddr=0;
 106:.\BLEClient.c ****             return;
 107:.\BLEClient.c ****         }
 108:.\BLEClient.c ****     }
 109:.\BLEClient.c ****     DeviceCount++;
 110:.\BLEClient.c ****     memcpy(DeviceInfo[DeviceCount-1].DeviceList.bdAddr,ScanReport->peerBdAddr,6);
 111:.\BLEClient.c ****     if(CYBLE_GAP_ADDR_TYPE_PUBLIC==ScanReport->peerAddrType)
 112:.\BLEClient.c ****     {
 113:.\BLEClient.c ****         DeviceInfo[DeviceCount-1].DeviceList.type=CYBLE_GAP_ADDR_TYPE_PUBLIC;
 114:.\BLEClient.c **** //        DeviceInfo[DeviceCount-1].DeviceList.type='P';
 115:.\BLEClient.c ****     }
 116:.\BLEClient.c ****     else
 117:.\BLEClient.c ****     {
 118:.\BLEClient.c ****         DeviceInfo[DeviceCount-1].DeviceList.type=CYBLE_GAP_ADDR_TYPE_RANDOM;
 119:.\BLEClient.c **** //        DeviceInfo[DeviceCount-1].DeviceList.type='R';
 120:.\BLEClient.c ****     }
 121:.\BLEClient.c ****     DeviceInfo[DeviceCount-1].idx=DeviceCount;        
 122:.\BLEClient.c ****     if(CYBLE_GAPC_CONN_UNDIRECTED_ADV==ScanReport->eventType)   
 123:.\BLEClient.c ****     {
 124:.\BLEClient.c ****         DeviceInfo[DeviceCount-1].rssi=ScanReport->rssi;
 125:.\BLEClient.c ****         Parser_adv_data_scan_data(ScanReport->data,ScanReport->dataLen);
 126:.\BLEClient.c ****         if(DeviceInfo[DeviceCount-1].ScanName)
 127:.\BLEClient.c ****             {
 128:.\BLEClient.c ****                 DeviceInfo[DeviceCount-1].ScanName=FALSE;
 129:.\BLEClient.c ****             }
 130:.\BLEClient.c ****             else
 131:.\BLEClient.c ****             {
 132:.\BLEClient.c ****                 memset(DeviceInfo[DeviceCount-1].DeviceName,0,sizeof(DeviceInfo[DeviceCount-1].Devi
 133:.\BLEClient.c ****                 memcpy(DeviceInfo[DeviceCount-1].DeviceName,"NULL",sizeof("NULL"));
 134:.\BLEClient.c ****             }
 135:.\BLEClient.c **** //            printf("+SCAN=%d,%d,%c,%02X%02X%02X%02X%02X%02X,%s\r\n",
 136:.\BLEClient.c **** //                    DeviceInfo[DeviceCount-1].idx,
 137:.\BLEClient.c **** //                    DeviceInfo[DeviceCount-1].rssi,
 138:.\BLEClient.c **** //                    PUBLIC_OR_RANDOM(DeviceInfo[DeviceCount-1].DeviceList.type),
 139:.\BLEClient.c **** //                    DeviceInfo[DeviceCount-1].DeviceList.bdAddr[5],
 140:.\BLEClient.c **** //                    DeviceInfo[DeviceCount-1].DeviceList.bdAddr[4],
 141:.\BLEClient.c **** //                    DeviceInfo[DeviceCount-1].DeviceList.bdAddr[3],
 142:.\BLEClient.c **** //                    DeviceInfo[DeviceCount-1].DeviceList.bdAddr[2],
 143:.\BLEClient.c **** //                    DeviceInfo[DeviceCount-1].DeviceList.bdAddr[1],
 144:.\BLEClient.c **** //                    DeviceInfo[DeviceCount-1].DeviceList.bdAddr[0],
 145:.\BLEClient.c **** //                    DeviceInfo[DeviceCount-1].DeviceName
 146:.\BLEClient.c **** //                    
ARM GAS  C:\Users\Helon\AppData\Local\Temp\ccFTP8XO.s 			page 4


 147:.\BLEClient.c **** //                  );
 148:.\BLEClient.c ****             if(0==strncmp((char*)DeviceInfo[DeviceCount-1].DeviceName,"BLEBLE-105",10))//ÊâæÂà∞Ëøô‰
 149:.\BLEClient.c ****             {
 150:.\BLEClient.c ****                 CyBle_GapcStopScan();
 151:.\BLEClient.c **** //                CyDelay(2000);
 152:.\BLEClient.c ****                 STOP_SCAN_FLAG=TRUE;
 153:.\BLEClient.c **** //                 printf("%d\r\n",CyBle_GetState());                
 154:.\BLEClient.c **** //                CyDelayUs(500);
 155:.\BLEClient.c **** //                printf("%d",CyBle_GetState());
 156:.\BLEClient.c ****                 
 157:.\BLEClient.c ****             }
 158:.\BLEClient.c ****             while((UART_SpiUartGetTxBufferSize() + UART_GET_TX_FIFO_SR_VALID) != 0);//Á≠âÂæÖ‰∏≤Âè£Á
 159:.\BLEClient.c ****     }
 160:.\BLEClient.c ****     
 161:.\BLEClient.c **** }
 162:.\BLEClient.c **** 
 163:.\BLEClient.c **** /******************************************************************************
 164:.\BLEClient.c **** * Function Name: Parser_adv_data_scan_data
 165:.\BLEClient.c **** ***************************************************************************//**
 166:.\BLEClient.c **** * 
 167:.\BLEClient.c **** *  Ëß£ÊûêÁ©∫‰∏≠ÂπøÊí≠Êï∞ÊçÆÊàñËÄÖÊâ´ÊèèÂìçÂ∫îÊï∞ÊçÆ
 168:.\BLEClient.c **** * \param  pdata:ÊåáÂêëÁ©∫‰∏≠ÂπøÊí≠Êï∞ÊçÆÊàñËÄÖÊâ´ÊèèÂìçÂ∫îÊï∞ÊçÆÁöÑÊåáÈíà
 169:.\BLEClient.c **** * \param  total_len:Á©∫‰∏≠ÂπøÊí≠Êï∞ÊçÆÊàñËÄÖÊâ´ÊèèÂìçÂ∫îÊï∞ÊçÆÁöÑÈïøÂ∫¶
 170:.\BLEClient.c **** * \return
 171:.\BLEClient.c **** *  None
 172:.\BLEClient.c **** * 
 173:.\BLEClient.c **** ******************************************************************************/
 174:.\BLEClient.c **** void Parser_adv_data_scan_data(uint8_t *pdata, uint8_t total_len)
 175:.\BLEClient.c **** {
  26              		.loc 1 175 0
  27              		.cfi_startproc
  28              	.LVL0:
  29 0000 F0B5     		push	{r4, r5, r6, r7, lr}
  30              		.cfi_def_cfa_offset 20
  31              		.cfi_offset 4, -20
  32              		.cfi_offset 5, -16
  33              		.cfi_offset 6, -12
  34              		.cfi_offset 7, -8
  35              		.cfi_offset 14, -4
  36 0002 5746     		mov	r7, r10
  37 0004 4646     		mov	r6, r8
  38 0006 C0B4     		push	{r6, r7}
  39              		.cfi_def_cfa_offset 28
  40              		.cfi_offset 8, -28
  41              		.cfi_offset 10, -24
  42 0008 83B0     		sub	sp, sp, #12
  43              		.cfi_def_cfa_offset 40
 176:.\BLEClient.c ****     uint8_t* pend=pdata+total_len;
  44              		.loc 1 176 0
  45 000a 4518     		add	r5, r0, r1
  46              	.LVL1:
 177:.\BLEClient.c ****     uint8_t length=0;
 178:.\BLEClient.c ****     uint8_t i,ServiceCount;
 179:.\BLEClient.c ****     pdata++;
  47              		.loc 1 179 0
  48 000c 441C     		add	r4, r0, #1
  49              	.LVL2:
ARM GAS  C:\Users\Helon\AppData\Local\Temp\ccFTP8XO.s 			page 5


 177:.\BLEClient.c ****     uint8_t length=0;
  50              		.loc 1 177 0
  51 000e 0023     		mov	r3, #0
 180:.\BLEClient.c ****     while(pend>pdata)
  52              		.loc 1 180 0
  53 0010 6BE0     		b	.L2
  54              	.LVL3:
  55              	.L15:
 181:.\BLEClient.c ****     {
 182:.\BLEClient.c **** //      pdata-1Ë°®Á§∫ÁöÑÊòØÂØπÂ∫îÂÜÖÂÆπÁöÑÈïøÂ∫¶Ôºåpdata+1Ë°®Á§∫ÁöÑÊòØÂØπÂ∫îÁöÑÂÜÖÂÆπ
 183:.\BLEClient.c ****         switch(*pdata)
  56              		.loc 1 183 0
  57 0012 2278     		ldrb	r2, [r4]
  58 0014 0A2A     		cmp	r2, #10
  59 0016 67D8     		bhi	.L3
  60 0018 9200     		lsl	r2, r2, #2
  61 001a 3749     		ldr	r1, .L16
  62 001c 8A58     		ldr	r2, [r1, r2]
  63 001e 9746     		mov	pc, r2
  64              		.section	.rodata
  65              		.align	2
  66              	.L5:
  67 0000 E8000000 		.word	.L3
  68 0004 20000000 		.word	.L4
  69 0008 2A000000 		.word	.L6
  70 000c 4A000000 		.word	.L7
  71 0010 E8000000 		.word	.L3
  72 0014 E8000000 		.word	.L3
  73 0018 E8000000 		.word	.L3
  74 001c E8000000 		.word	.L3
  75 0020 6A000000 		.word	.L8
  76 0024 9C000000 		.word	.L9
  77 0028 E0000000 		.word	.L10
  78              		.section	.text.Parser_adv_data_scan_data
  79              	.L4:
 184:.\BLEClient.c ****         {
 185:.\BLEClient.c ****             case CYBLE_GAP_ADV_FLAGS:
 186:.\BLEClient.c **** //                printf("Flags is %d\r\n",*(pdata+1));
 187:.\BLEClient.c ****                 length=1+*(pdata-1);
  80              		.loc 1 187 0
  81 0020 631E     		sub	r3, r4, #1
  82              	.LVL4:
  83 0022 1B78     		ldrb	r3, [r3]
  84 0024 0133     		add	r3, r3, #1
  85 0026 DBB2     		uxtb	r3, r3
  86              	.LVL5:
 188:.\BLEClient.c ****             break;
  87              		.loc 1 188 0
  88 0028 5EE0     		b	.L3
  89              	.L6:
 189:.\BLEClient.c ****             //ÊØîÂ¶ÇÊúâÂá†‰∏™ÊúçÂä°ÔºåÈÇ£‰πàÂ∞±ÊúâÂá†‰∏™ÊúçÂä°ÁöÑUUIDÔºå
 190:.\BLEClient.c ****             //ÂπøÊí≠‰∏≠Âè™Ë¶ÅÊ≤°ÊúâÊääÂÖ®ÈÉ®ÁöÑÊúçÂä°UUIDÔºåÂ∞±ÊòØCYBLE_GAP_ADV_INCOMPL_16UUID
 191:.\BLEClient.c ****             case CYBLE_GAP_ADV_INCOMPL_16UUID:
 192:.\BLEClient.c **** //          ÊúçÂä°IDÁöÑÊï∞Èáè
 193:.\BLEClient.c ****                 ServiceCount=(*(pdata-1)-1)/2;
  90              		.loc 1 193 0
  91 002a 631E     		sub	r3, r4, #1
ARM GAS  C:\Users\Helon\AppData\Local\Temp\ccFTP8XO.s 			page 6


  92              	.LVL6:
  93 002c 1A78     		ldrb	r2, [r3]
  94 002e 531E     		sub	r3, r2, #1
  95 0030 D90F     		lsr	r1, r3, #31
  96 0032 CB18     		add	r3, r1, r3
  97 0034 5B10     		asr	r3, r3, #1
  98 0036 D9B2     		uxtb	r1, r3
  99              	.LVL7:
 194:.\BLEClient.c ****                 for(i=0;i<ServiceCount;i++)
 100              		.loc 1 194 0
 101 0038 0023     		mov	r3, #0
 102 003a 01E0     		b	.L11
 103              	.LVL8:
 104              	.L12:
 105 003c 0133     		add	r3, r3, #1
 106              	.LVL9:
 107 003e DBB2     		uxtb	r3, r3
 108              	.LVL10:
 109              	.L11:
 110              		.loc 1 194 0 is_stmt 0 discriminator 1
 111 0040 8B42     		cmp	r3, r1
 112 0042 FBD3     		bcc	.L12
 195:.\BLEClient.c ****                 {                
 196:.\BLEClient.c ****                     switch(i)
 197:.\BLEClient.c ****                     {
 198:.\BLEClient.c ****                         case 0:
 199:.\BLEClient.c **** //                            printf("Service1 ID is: 0x%02X%02X\r\n",*(pdata+i+2),*(pdata+i+1));
 200:.\BLEClient.c ****                         break;                       
 201:.\BLEClient.c ****                         case 1:
 202:.\BLEClient.c **** //                            printf("Service2 ID is: 0x%02X%02X\r\n",*(pdata+i+3),*(pdata+i+2));
 203:.\BLEClient.c ****                         break;                    
 204:.\BLEClient.c ****                         case 2:
 205:.\BLEClient.c **** //                            printf("Service3 ID is: 0x%02X%02X\r\n",*(pdata+i+4),*(pdata+i+3));
 206:.\BLEClient.c ****                         break;
 207:.\BLEClient.c ****                         case 3:
 208:.\BLEClient.c **** //                            printf("Service4 ID is: 0x%02X%02X\r\n",*(pdata+i+5),*(pdata+i+4));
 209:.\BLEClient.c ****                         break;
 210:.\BLEClient.c ****                         case 4:
 211:.\BLEClient.c **** //                            printf("Service5 ID is: 0x%02X%02X\r\n",*(pdata+i+6),*(pdata+i+5));
 212:.\BLEClient.c ****                         break;
 213:.\BLEClient.c ****                         case 5:
 214:.\BLEClient.c **** //                            printf("Service6 ID is: 0x%02X%02X\r\n",*(pdata+i+7),*(pdata+i+6));
 215:.\BLEClient.c ****                         break;
 216:.\BLEClient.c ****                         case 6:
 217:.\BLEClient.c **** //                            printf("Service7 ID is: 0x%02X%02X\r\n",*(pdata+i+8),*(pdata+i+7));
 218:.\BLEClient.c ****                         break;
 219:.\BLEClient.c ****                         case 7:
 220:.\BLEClient.c **** //                            printf("Service8 ID is: 0x%02X%02X\r\n",*(pdata+i+9),*(pdata+i+8));
 221:.\BLEClient.c ****                         break;
 222:.\BLEClient.c ****                         case 8:
 223:.\BLEClient.c **** //                            printf("Service9 ID is: 0x%02X%02X\r\n",*(pdata+i+10),*(pdata+i+9));
 224:.\BLEClient.c ****                         break;
 225:.\BLEClient.c ****                         case 9:
 226:.\BLEClient.c **** //                            printf("Service10 ID is: 0x%02X%02X\r\n",*(pdata+i+11),*(pdata+i+10))
 227:.\BLEClient.c ****                         break;
 228:.\BLEClient.c ****                         default:
 229:.\BLEClient.c ****                         break;
ARM GAS  C:\Users\Helon\AppData\Local\Temp\ccFTP8XO.s 			page 7


 230:.\BLEClient.c ****                     }
 231:.\BLEClient.c ****                 }
 232:.\BLEClient.c ****                 length=1+*(pdata-1);
 113              		.loc 1 232 0 is_stmt 1
 114 0044 0132     		add	r2, r2, #1
 115 0046 D3B2     		uxtb	r3, r2
 116              	.LVL11:
 233:.\BLEClient.c ****             break;
 117              		.loc 1 233 0
 118 0048 4EE0     		b	.L3
 119              	.LVL12:
 120              	.L7:
 234:.\BLEClient.c ****             case CYBLE_GAP_ADV_COMPL_16UUID:
 235:.\BLEClient.c ****                 ServiceCount=(*(pdata-1)-1)/2;
 121              		.loc 1 235 0
 122 004a 631E     		sub	r3, r4, #1
 123              	.LVL13:
 124 004c 1A78     		ldrb	r2, [r3]
 125 004e 531E     		sub	r3, r2, #1
 126 0050 D90F     		lsr	r1, r3, #31
 127 0052 CB18     		add	r3, r1, r3
 128 0054 5B10     		asr	r3, r3, #1
 129 0056 D9B2     		uxtb	r1, r3
 130              	.LVL14:
 236:.\BLEClient.c ****                 for(i=0;i<ServiceCount;i++)
 131              		.loc 1 236 0
 132 0058 0023     		mov	r3, #0
 133 005a 01E0     		b	.L13
 134              	.LVL15:
 135              	.L14:
 136 005c 0133     		add	r3, r3, #1
 137              	.LVL16:
 138 005e DBB2     		uxtb	r3, r3
 139              	.LVL17:
 140              	.L13:
 141              		.loc 1 236 0 is_stmt 0 discriminator 1
 142 0060 8B42     		cmp	r3, r1
 143 0062 FBD3     		bcc	.L14
 237:.\BLEClient.c ****                 {                
 238:.\BLEClient.c ****                     switch(i)
 239:.\BLEClient.c ****                     {
 240:.\BLEClient.c ****                         case 0:
 241:.\BLEClient.c **** //                            printf("Service1 ID is: 0x%02X%02X\r\n",*(pdata+i+2),*(pdata+i+1));
 242:.\BLEClient.c ****                         break;                       
 243:.\BLEClient.c ****                         case 1:
 244:.\BLEClient.c **** //                            printf("Service2 ID is: 0x%02X%02X\r\n",*(pdata+i+3),*(pdata+i+2));
 245:.\BLEClient.c ****                         break;                    
 246:.\BLEClient.c ****                         case 2:
 247:.\BLEClient.c **** //                            printf("Service3 ID is: 0x%02X%02X\r\n",*(pdata+i+4),*(pdata+i+3));
 248:.\BLEClient.c ****                         break;
 249:.\BLEClient.c ****                         case 3:
 250:.\BLEClient.c **** //                            printf("Service4 ID is: 0x%02X%02X\r\n",*(pdata+i+5),*(pdata+i+4));
 251:.\BLEClient.c ****                         break;
 252:.\BLEClient.c ****                         case 4:
 253:.\BLEClient.c **** //                            printf("Service5 ID is: 0x%02X%02X\r\n",*(pdata+i+6),*(pdata+i+5));
 254:.\BLEClient.c ****                         break;
 255:.\BLEClient.c ****                         case 5:
ARM GAS  C:\Users\Helon\AppData\Local\Temp\ccFTP8XO.s 			page 8


 256:.\BLEClient.c **** //                            printf("Service6 ID is: 0x%02X%02X\r\n",*(pdata+i+7),*(pdata+i+6));
 257:.\BLEClient.c ****                         break;
 258:.\BLEClient.c ****                         case 6:
 259:.\BLEClient.c **** //                            printf("Service7 ID is: 0x%02X%02X\r\n",*(pdata+i+8),*(pdata+i+7));
 260:.\BLEClient.c ****                         break;
 261:.\BLEClient.c ****                         case 7:
 262:.\BLEClient.c **** //                            printf("Service8 ID is: 0x%02X%02X\r\n",*(pdata+i+9),*(pdata+i+8));
 263:.\BLEClient.c ****                         break;
 264:.\BLEClient.c ****                         case 8:
 265:.\BLEClient.c **** //                            printf("Service9 ID is: 0x%02X%02X\r\n",*(pdata+i+10),*(pdata+i+9));
 266:.\BLEClient.c ****                         break;
 267:.\BLEClient.c ****                         case 9:
 268:.\BLEClient.c **** //                            printf("Service10 ID is: 0x%02X%02X\r\n",*(pdata+i+11),*(pdata+i+10))
 269:.\BLEClient.c ****                         break;
 270:.\BLEClient.c ****                         default:
 271:.\BLEClient.c ****                         break;
 272:.\BLEClient.c ****                     }
 273:.\BLEClient.c ****                 }
 274:.\BLEClient.c ****                 length=1+*(pdata-1);
 144              		.loc 1 274 0 is_stmt 1
 145 0064 0132     		add	r2, r2, #1
 146 0066 D3B2     		uxtb	r3, r2
 147              	.LVL18:
 275:.\BLEClient.c ****             break;           
 148              		.loc 1 275 0
 149 0068 3EE0     		b	.L3
 150              	.LVL19:
 151              	.L8:
 276:.\BLEClient.c ****             case CYBLE_GAP_ADV_INCOMPL_32_UUID:
 277:.\BLEClient.c ****                 
 278:.\BLEClient.c ****             break;
 279:.\BLEClient.c ****             case CYBLE_GAP_ADV_COMPL_32_UUID:
 280:.\BLEClient.c ****             
 281:.\BLEClient.c ****             break;
 282:.\BLEClient.c ****             case CYBLE_GAP_ADV_INCOMPL_128_UUID:
 283:.\BLEClient.c ****             
 284:.\BLEClient.c ****             break;
 285:.\BLEClient.c ****             case CYBLE_GAP_ADV_COMPL_128_UUID:
 286:.\BLEClient.c ****             
 287:.\BLEClient.c ****             break;  
 288:.\BLEClient.c ****             case CYBLE_GAP_ADV_SHORT_NAME:
 289:.\BLEClient.c ****                 //ÊèêÂâçÂàùÂßãÂåñDeviceNameÊåáÈíàÁöÑÂâçÈù¢20‰∏™Byte
 290:.\BLEClient.c ****                 memset(DeviceInfo[DeviceCount-1].DeviceName,0,sizeof(DeviceInfo[DeviceCount-1].Devi
 152              		.loc 1 290 0
 153 006a 244B     		ldr	r3, .L16+4
 154              	.LVL20:
 155 006c 1B78     		ldrb	r3, [r3]
 156 006e 5A1E     		sub	r2, r3, #1
 157 0070 1301     		lsl	r3, r2, #4
 158 0072 9B1A     		sub	r3, r3, r2
 159 0074 5B00     		lsl	r3, r3, #1
 160 0076 224E     		ldr	r6, .L16+8
 161 0078 F618     		add	r6, r6, r3
 162 007a 0936     		add	r6, r6, #9
 163 007c 301C     		mov	r0, r6
 164 007e 0021     		mov	r1, #0
 165 0080 1422     		mov	r2, #20
ARM GAS  C:\Users\Helon\AppData\Local\Temp\ccFTP8XO.s 			page 9


 166 0082 FFF7FEFF 		bl	memset
 167              	.LVL21:
 291:.\BLEClient.c **** //                memcpy(DeviceName,(pdata+1),*(pdata-1)-1);
 292:.\BLEClient.c **** //                printf("Shortened Local Name is: %s\r\n",DeviceName);
 293:.\BLEClient.c **** //                printf("%s>\r\n",DeviceName);
 294:.\BLEClient.c ****                 memcpy(DeviceInfo[DeviceCount-1].DeviceName,(pdata+1),*(pdata-1)-1);
 168              		.loc 1 294 0
 169 0086 671E     		sub	r7, r4, #1
 170 0088 3A78     		ldrb	r2, [r7]
 171 008a 013A     		sub	r2, r2, #1
 172 008c 611C     		add	r1, r4, #1
 173 008e 301C     		mov	r0, r6
 174 0090 FFF7FEFF 		bl	memcpy
 175              	.LVL22:
 295:.\BLEClient.c ****                 length=1+*(pdata-1);
 176              		.loc 1 295 0
 177 0094 3B78     		ldrb	r3, [r7]
 178 0096 0133     		add	r3, r3, #1
 179 0098 DBB2     		uxtb	r3, r3
 180              	.LVL23:
 296:.\BLEClient.c ****             break;
 181              		.loc 1 296 0
 182 009a 25E0     		b	.L3
 183              	.L9:
 297:.\BLEClient.c ****             case CYBLE_GAP_ADV_COMPL_NAME:
 298:.\BLEClient.c ****                 //ÊèêÂâçÂàùÂßãÂåñDeviceNameÊåáÈíàÁöÑÂâçÈù¢20‰∏™Byte
 299:.\BLEClient.c ****                 memset(DeviceInfo[DeviceCount-1].DeviceName,0,sizeof(DeviceInfo[DeviceCount-1].Devi
 184              		.loc 1 299 0
 185 009c 174B     		ldr	r3, .L16+4
 186              	.LVL24:
 187 009e 1B78     		ldrb	r3, [r3]
 188 00a0 013B     		sub	r3, r3, #1
 189 00a2 9846     		mov	r8, r3
 190 00a4 1E01     		lsl	r6, r3, #4
 191 00a6 F71A     		sub	r7, r6, r3
 192 00a8 7F00     		lsl	r7, r7, #1
 193 00aa 154B     		ldr	r3, .L16+8
 194 00ac 9A46     		mov	r10, r3
 195 00ae 5744     		add	r7, r7, r10
 196 00b0 0937     		add	r7, r7, #9
 197 00b2 0197     		str	r7, [sp, #4]
 198 00b4 381C     		mov	r0, r7
 199 00b6 0021     		mov	r1, #0
 200 00b8 1422     		mov	r2, #20
 201 00ba FFF7FEFF 		bl	memset
 202              	.LVL25:
 300:.\BLEClient.c **** //                memcpy(DeviceName,(pdata+1),*(pdata-1)-1);
 301:.\BLEClient.c ****                 memcpy(DeviceInfo[DeviceCount-1].DeviceName,(pdata+1),*(pdata-1)-1);
 203              		.loc 1 301 0
 204 00be 671E     		sub	r7, r4, #1
 205 00c0 3A78     		ldrb	r2, [r7]
 206 00c2 013A     		sub	r2, r2, #1
 207 00c4 611C     		add	r1, r4, #1
 208 00c6 0198     		ldr	r0, [sp, #4]
 209 00c8 FFF7FEFF 		bl	memcpy
 210              	.LVL26:
 302:.\BLEClient.c ****                 DeviceInfo[DeviceCount-1].ScanName=TRUE;
ARM GAS  C:\Users\Helon\AppData\Local\Temp\ccFTP8XO.s 			page 10


 211              		.loc 1 302 0
 212 00cc 4346     		mov	r3, r8
 213 00ce F31A     		sub	r3, r6, r3
 214 00d0 5B00     		lsl	r3, r3, #1
 215 00d2 5344     		add	r3, r3, r10
 216 00d4 0122     		mov	r2, #1
 217 00d6 5A77     		strb	r2, [r3, #29]
 303:.\BLEClient.c **** //                printf("Complete Local Name is: %s\r\n",DeviceInfo[DeviceCount-1].DeviceName);   
 304:.\BLEClient.c **** //                printf("%s>\r\n",DeviceName);
 305:.\BLEClient.c ****                 length=1+*(pdata-1);
 218              		.loc 1 305 0
 219 00d8 3B78     		ldrb	r3, [r7]
 220 00da 0133     		add	r3, r3, #1
 221 00dc DBB2     		uxtb	r3, r3
 222              	.LVL27:
 306:.\BLEClient.c ****             break;
 223              		.loc 1 306 0
 224 00de 03E0     		b	.L3
 225              	.L10:
 307:.\BLEClient.c ****             case CYBLE_GAP_ADV_TX_PWR_LVL:
 308:.\BLEClient.c **** //                printf("Tx Power Level is: %ddbm\r\n",*(pdata+1));
 309:.\BLEClient.c ****                 length=1+*(pdata-1);
 226              		.loc 1 309 0
 227 00e0 631E     		sub	r3, r4, #1
 228              	.LVL28:
 229 00e2 1B78     		ldrb	r3, [r3]
 230 00e4 0133     		add	r3, r3, #1
 231 00e6 DBB2     		uxtb	r3, r3
 232              	.LVL29:
 233              	.L3:
 310:.\BLEClient.c ****             break;
 311:.\BLEClient.c ****             case CYBLE_GAP_ADV_CLASS_OF_DEVICE:
 312:.\BLEClient.c ****                 
 313:.\BLEClient.c ****             break;
 314:.\BLEClient.c ****             
 315:.\BLEClient.c ****             case CYBLE_GAP_ADV_SMPL_PAIR_HASH_C:
 316:.\BLEClient.c ****                 
 317:.\BLEClient.c ****             break;
 318:.\BLEClient.c ****             case CYBLE_GAP_ADV_SMPL_PAIR_RANDOM_R:
 319:.\BLEClient.c ****                 
 320:.\BLEClient.c ****             break;     
 321:.\BLEClient.c ****             //CYBLE_GAP_ADV_SCRT_MNGR_TK_VALÁöÑÊûö‰∏æÂÄº
 322:.\BLEClient.c ****             //Ë∑üCYBLE_GAP_ADV_DEVICE_IDÁõ∏Âêå    
 323:.\BLEClient.c ****             case CYBLE_GAP_ADV_DEVICE_ID:
 324:.\BLEClient.c ****                 
 325:.\BLEClient.c ****             break;
 326:.\BLEClient.c ****             case CYBLE_GAP_ADV_SCRT_MNGR_OOB_FLAGS:
 327:.\BLEClient.c ****                 
 328:.\BLEClient.c ****             break;   
 329:.\BLEClient.c ****             case CYBLE_GAP_ADV_SLAVE_CONN_INTRV_RANGE:
 330:.\BLEClient.c ****                 
 331:.\BLEClient.c ****             break;    
 332:.\BLEClient.c ****             case CYBLE_GAP_ADV_SOLICIT_16UUID:
 333:.\BLEClient.c ****                 
 334:.\BLEClient.c ****             break;     
 335:.\BLEClient.c ****             case CYBLE_GAP_ADV_SOLICIT_128UUID:
 336:.\BLEClient.c ****                 
ARM GAS  C:\Users\Helon\AppData\Local\Temp\ccFTP8XO.s 			page 11


 337:.\BLEClient.c ****             break; 
 338:.\BLEClient.c ****             case CYBLE_GAP_ADV_SRVC_DATA_16UUID:
 339:.\BLEClient.c ****                 
 340:.\BLEClient.c ****             break;    
 341:.\BLEClient.c ****             case CYBLE_GAP_ADV_PUBLIC_TARGET_ADDR:
 342:.\BLEClient.c ****                 
 343:.\BLEClient.c ****             break;  
 344:.\BLEClient.c ****             case CYBLE_GAP_ADV_RANDOM_TARGET_ADDR:
 345:.\BLEClient.c ****                 
 346:.\BLEClient.c ****             break;    
 347:.\BLEClient.c ****             case CYBLE_GAP_ADV_APPEARANCE:
 348:.\BLEClient.c ****                 
 349:.\BLEClient.c ****             break;     
 350:.\BLEClient.c ****             case CYBLE_GAP_ADV_ADVERT_INTERVAL:
 351:.\BLEClient.c ****                 
 352:.\BLEClient.c ****             break;   
 353:.\BLEClient.c ****             case CYBLE_GAP_ADV_LE_BT_DEVICE_ADDR:
 354:.\BLEClient.c ****                 
 355:.\BLEClient.c ****             break;
 356:.\BLEClient.c ****             case CYBLE_GAP_ADV_LE_ROLE:
 357:.\BLEClient.c ****                 
 358:.\BLEClient.c ****             break;
 359:.\BLEClient.c ****             case CYBLE_GAP_ADV_SMPL_PAIR_HASH_C256:
 360:.\BLEClient.c ****                 
 361:.\BLEClient.c ****             break;
 362:.\BLEClient.c ****             case CYBLE_GAP_ADV_SMPL_PAIR_RANDOM_R256:
 363:.\BLEClient.c ****                 
 364:.\BLEClient.c ****             break;
 365:.\BLEClient.c ****             case CYBLE_GAP_ADV_SOLICIT_32UUID:
 366:.\BLEClient.c ****                 
 367:.\BLEClient.c ****             break;  
 368:.\BLEClient.c ****             case CYBLE_GAP_ADV_SRVC_DATA_32UUID:
 369:.\BLEClient.c ****                 
 370:.\BLEClient.c ****             break;
 371:.\BLEClient.c ****             case CYBLE_GAP_ADV_SRVC_DATA_128UUID:
 372:.\BLEClient.c ****                 
 373:.\BLEClient.c ****             break;
 374:.\BLEClient.c ****             case CYBLE_GAP_ADV_3D_INFO_DATA:
 375:.\BLEClient.c ****                 
 376:.\BLEClient.c ****             break;
 377:.\BLEClient.c ****             default:                
 378:.\BLEClient.c ****             break;
 379:.\BLEClient.c ****                 
 380:.\BLEClient.c ****         }
 381:.\BLEClient.c ****         pdata+=length;
 234              		.loc 1 381 0
 235 00e8 E418     		add	r4, r4, r3
 236              	.LVL30:
 237              	.L2:
 180:.\BLEClient.c ****     {
 238              		.loc 1 180 0
 239 00ea A542     		cmp	r5, r4
 240 00ec 91D8     		bhi	.L15
 382:.\BLEClient.c ****     }    
 383:.\BLEClient.c **** //    printf("<%d,",DeviceCount);
 384:.\BLEClient.c **** }
 241              		.loc 1 384 0
ARM GAS  C:\Users\Helon\AppData\Local\Temp\ccFTP8XO.s 			page 12


 242 00ee 03B0     		add	sp, sp, #12
 243              		@ sp needed
 244              	.LVL31:
 245              	.LVL32:
 246 00f0 0CBC     		pop	{r2, r3}
 247 00f2 9046     		mov	r8, r2
 248 00f4 9A46     		mov	r10, r3
 249 00f6 F0BD     		pop	{r4, r5, r6, r7, pc}
 250              	.L17:
 251              		.align	2
 252              	.L16:
 253 00f8 00000000 		.word	.L5
 254 00fc 00000000 		.word	.LANCHOR0
 255 0100 00000000 		.word	DeviceInfo
 256              		.cfi_endproc
 257              	.LFE38:
 258              		.size	Parser_adv_data_scan_data, .-Parser_adv_data_scan_data
 259              		.section	.text.HandleScanDevices,"ax",%progbits
 260              		.align	2
 261              		.global	HandleScanDevices
 262              		.code	16
 263              		.thumb_func
 264              		.type	HandleScanDevices, %function
 265              	HandleScanDevices:
 266              	.LFB37:
  38:.\BLEClient.c **** //    printf("Advertising or Scan Response Data is 0x%02X%02X%02X%02X%02X%02X\r\n",
 267              		.loc 1 38 0
 268              		.cfi_startproc
 269              	.LVL33:
 270 0000 F8B5     		push	{r3, r4, r5, r6, r7, lr}
 271              		.cfi_def_cfa_offset 24
 272              		.cfi_offset 3, -24
 273              		.cfi_offset 4, -20
 274              		.cfi_offset 5, -16
 275              		.cfi_offset 6, -12
 276              		.cfi_offset 7, -8
 277              		.cfi_offset 14, -4
 278 0002 051C     		mov	r5, r0
 279              	.LVL34:
  44:.\BLEClient.c ****     {           
 280              		.loc 1 44 0
 281 0004 844B     		ldr	r3, .L37
 282 0006 5B78     		ldrb	r3, [r3, #1]
 283 0008 012B     		cmp	r3, #1
 284 000a 7AD0     		beq	.L19
  46:.\BLEClient.c ****         if(CYBLE_GAPC_CONN_UNDIRECTED_ADV==ScanReport->eventType)   
 285              		.loc 1 46 0
 286 000c 0122     		mov	r2, #1
 287 000e 824B     		ldr	r3, .L37
 288 0010 5A70     		strb	r2, [r3, #1]
  47:.\BLEClient.c ****         {
 289              		.loc 1 47 0
 290 0012 0378     		ldrb	r3, [r0]
 291 0014 002B     		cmp	r3, #0
 292 0016 74D1     		bne	.L19
  49:.\BLEClient.c ****             memcpy(DeviceInfo[DeviceCount-1].DeviceList.bdAddr,ScanReport->peerBdAddr,6);
 293              		.loc 1 49 0
ARM GAS  C:\Users\Helon\AppData\Local\Temp\ccFTP8XO.s 			page 13


 294 0018 7F4B     		ldr	r3, .L37
 295 001a 1C78     		ldrb	r4, [r3]
 296 001c 0134     		add	r4, r4, #1
 297 001e E4B2     		uxtb	r4, r4
 298 0020 1C70     		strb	r4, [r3]
  50:.\BLEClient.c ****             if(CYBLE_GAP_ADDR_TYPE_PUBLIC==ScanReport->peerAddrType)
 299              		.loc 1 50 0
 300 0022 671E     		sub	r7, r4, #1
 301 0024 3B01     		lsl	r3, r7, #4
 302 0026 DB1B     		sub	r3, r3, r7
 303 0028 5B00     		lsl	r3, r3, #1
 304 002a 7C48     		ldr	r0, .L37+4
 305              	.LVL35:
 306 002c C018     		add	r0, r0, r3
 307 002e 6968     		ldr	r1, [r5, #4]
 308 0030 0532     		add	r2, r2, #5
 309 0032 FFF7FEFF 		bl	memcpy
 310              	.LVL36:
  51:.\BLEClient.c ****             {
 311              		.loc 1 51 0
 312 0036 6B78     		ldrb	r3, [r5, #1]
 313 0038 002B     		cmp	r3, #0
 314 003a 07D1     		bne	.L20
  53:.\BLEClient.c **** //                DeviceInfo[DeviceCount-1].DeviceList.type='P';
 315              		.loc 1 53 0
 316 003c 3B01     		lsl	r3, r7, #4
 317 003e DB1B     		sub	r3, r3, r7
 318 0040 5B00     		lsl	r3, r3, #1
 319 0042 764A     		ldr	r2, .L37+4
 320 0044 D318     		add	r3, r2, r3
 321 0046 0022     		mov	r2, #0
 322 0048 9A71     		strb	r2, [r3, #6]
 323 004a 06E0     		b	.L21
 324              	.L20:
  58:.\BLEClient.c **** //                DeviceInfo[DeviceCount-1].DeviceList.type='R';
 325              		.loc 1 58 0
 326 004c 3B01     		lsl	r3, r7, #4
 327 004e DB1B     		sub	r3, r3, r7
 328 0050 5B00     		lsl	r3, r3, #1
 329 0052 724A     		ldr	r2, .L37+4
 330 0054 D318     		add	r3, r2, r3
 331 0056 0122     		mov	r2, #1
 332 0058 9A71     		strb	r2, [r3, #6]
 333              	.L21:
  61:.\BLEClient.c ****             DeviceInfo[DeviceCount-1].rssi=ScanReport->rssi;
 334              		.loc 1 61 0
 335 005a 704E     		ldr	r6, .L37+4
 336 005c 3801     		lsl	r0, r7, #4
 337 005e C31B     		sub	r3, r0, r7
 338 0060 5B00     		lsl	r3, r3, #1
 339 0062 F318     		add	r3, r6, r3
 340 0064 DC71     		strb	r4, [r3, #7]
  62:.\BLEClient.c ****             memcpy(DeviceInfo[DeviceCount-1].DeviceList.bdAddr,ScanReport->peerBdAddr,6);
 341              		.loc 1 62 0
 342 0066 2A7C     		ldrb	r2, [r5, #16]
 343 0068 1A72     		strb	r2, [r3, #8]
  63:.\BLEClient.c ****             Parser_adv_data_scan_data(ScanReport->data,ScanReport->dataLen);
ARM GAS  C:\Users\Helon\AppData\Local\Temp\ccFTP8XO.s 			page 14


 344              		.loc 1 63 0
 345 006a 181C     		mov	r0, r3
 346 006c 6968     		ldr	r1, [r5, #4]
 347 006e 0622     		mov	r2, #6
 348 0070 FFF7FEFF 		bl	memcpy
 349              	.LVL37:
  64:.\BLEClient.c ****             if(DeviceInfo[DeviceCount-1].ScanName)
 350              		.loc 1 64 0
 351 0074 E868     		ldr	r0, [r5, #12]
 352 0076 297A     		ldrb	r1, [r5, #8]
 353 0078 FFF7FEFF 		bl	Parser_adv_data_scan_data
 354              	.LVL38:
  65:.\BLEClient.c ****             {
 355              		.loc 1 65 0
 356 007c 664B     		ldr	r3, .L37
 357 007e 1B78     		ldrb	r3, [r3]
 358 0080 5A1E     		sub	r2, r3, #1
 359 0082 1301     		lsl	r3, r2, #4
 360 0084 9B1A     		sub	r3, r3, r2
 361 0086 5B00     		lsl	r3, r3, #1
 362 0088 F318     		add	r3, r6, r3
 363 008a 5B7F     		ldrb	r3, [r3, #29]
 364 008c 002B     		cmp	r3, #0
 365 008e 07D0     		beq	.L22
  67:.\BLEClient.c ****             }
 366              		.loc 1 67 0
 367 0090 1301     		lsl	r3, r2, #4
 368 0092 9B1A     		sub	r3, r3, r2
 369 0094 5B00     		lsl	r3, r3, #1
 370 0096 614A     		ldr	r2, .L37+4
 371 0098 D318     		add	r3, r2, r3
 372 009a 0022     		mov	r2, #0
 373 009c 5A77     		strb	r2, [r3, #29]
 374 009e 0FE0     		b	.L23
 375              	.L22:
  71:.\BLEClient.c ****                 memcpy(DeviceInfo[DeviceCount-1].DeviceName,"NULL",sizeof("NULL"));
 376              		.loc 1 71 0
 377 00a0 1301     		lsl	r3, r2, #4
 378 00a2 9B1A     		sub	r3, r3, r2
 379 00a4 5B00     		lsl	r3, r3, #1
 380 00a6 5D4C     		ldr	r4, .L37+4
 381 00a8 E418     		add	r4, r4, r3
 382 00aa 0934     		add	r4, r4, #9
 383 00ac 201C     		mov	r0, r4
 384 00ae 0021     		mov	r1, #0
 385 00b0 1422     		mov	r2, #20
 386 00b2 FFF7FEFF 		bl	memset
 387              	.LVL39:
  72:.\BLEClient.c ****             }
 388              		.loc 1 72 0
 389 00b6 201C     		mov	r0, r4
 390 00b8 5949     		ldr	r1, .L37+8
 391 00ba 0522     		mov	r2, #5
 392 00bc FFF7FEFF 		bl	memcpy
 393              	.LVL40:
 394              	.L23:
  87:.\BLEClient.c ****             {
ARM GAS  C:\Users\Helon\AppData\Local\Temp\ccFTP8XO.s 			page 15


 395              		.loc 1 87 0
 396 00c0 554B     		ldr	r3, .L37
 397 00c2 1B78     		ldrb	r3, [r3]
 398 00c4 581E     		sub	r0, r3, #1
 399 00c6 0301     		lsl	r3, r0, #4
 400 00c8 1B1A     		sub	r3, r3, r0
 401 00ca 5B00     		lsl	r3, r3, #1
 402 00cc 5348     		ldr	r0, .L37+4
 403 00ce C018     		add	r0, r0, r3
 404 00d0 0930     		add	r0, r0, #9
 405 00d2 5449     		ldr	r1, .L37+12
 406 00d4 0A22     		mov	r2, #10
 407 00d6 FFF7FEFF 		bl	strncmp
 408              	.LVL41:
 409 00da 0028     		cmp	r0, #0
 410 00dc 04D1     		bne	.L26
  89:.\BLEClient.c **** //                CyDelay(2000);
 411              		.loc 1 89 0
 412 00de FFF7FEFF 		bl	CyBle_GapcStopScan
 413              	.LVL42:
  91:.\BLEClient.c **** //                printf("%d\r\n",CyBle_GetState());                             
 414              		.loc 1 91 0
 415 00e2 0122     		mov	r2, #1
 416 00e4 504B     		ldr	r3, .L37+16
 417 00e6 1A70     		strb	r2, [r3]
 418              	.L26:
  94:.\BLEClient.c ****             return;
 419              		.loc 1 94 0 discriminator 5
 420 00e8 FFF7FEFF 		bl	UART_SpiUartGetTxBufferSize
 421              	.LVL43:
 422 00ec 4F4B     		ldr	r3, .L37+20
 423 00ee 1B68     		ldr	r3, [r3]
 424 00f0 8022     		mov	r2, #128
 425 00f2 1202     		lsl	r2, r2, #8
 426 00f4 1340     		and	r3, r2
 427 00f6 00D0     		beq	.L25
  94:.\BLEClient.c ****             return;
 428              		.loc 1 94 0 is_stmt 0
 429 00f8 0123     		mov	r3, #1
 430              	.L25:
  94:.\BLEClient.c ****             return;
 431              		.loc 1 94 0 discriminator 4
 432 00fa C318     		add	r3, r0, r3
 433 00fc 002B     		cmp	r3, #0
 434 00fe F3D1     		bne	.L26
 435 0100 88E0     		b	.L18
 436              	.LVL44:
 437              	.L19:
 101:.\BLEClient.c ****     {        
 438              		.loc 1 101 0 is_stmt 1
 439 0102 0024     		mov	r4, #0
 440 0104 0CE0     		b	.L28
 441              	.LVL45:
 442              	.L29:
 103:.\BLEClient.c ****         {
 443              		.loc 1 103 0
 444 0106 2301     		lsl	r3, r4, #4
ARM GAS  C:\Users\Helon\AppData\Local\Temp\ccFTP8XO.s 			page 16


 445 0108 1B1B     		sub	r3, r3, r4
 446 010a 5B00     		lsl	r3, r3, #1
 447 010c 4349     		ldr	r1, .L37+4
 448 010e 5918     		add	r1, r3, r1
 449 0110 6868     		ldr	r0, [r5, #4]
 450 0112 0622     		mov	r2, #6
 451 0114 FFF7FEFF 		bl	memcmp
 452              	.LVL46:
 453 0118 0028     		cmp	r0, #0
 454 011a 7BD0     		beq	.L18
 101:.\BLEClient.c ****     {        
 455              		.loc 1 101 0 discriminator 2
 456 011c 0134     		add	r4, r4, #1
 457              	.LVL47:
 458 011e E4B2     		uxtb	r4, r4
 459              	.LVL48:
 460              	.L28:
 101:.\BLEClient.c ****     {        
 461              		.loc 1 101 0 is_stmt 0 discriminator 1
 462 0120 3D4B     		ldr	r3, .L37
 463 0122 1B78     		ldrb	r3, [r3]
 464 0124 9C42     		cmp	r4, r3
 465 0126 EED3     		bcc	.L29
 109:.\BLEClient.c ****     memcpy(DeviceInfo[DeviceCount-1].DeviceList.bdAddr,ScanReport->peerBdAddr,6);
 466              		.loc 1 109 0 is_stmt 1
 467 0128 0133     		add	r3, r3, #1
 468 012a DCB2     		uxtb	r4, r3
 469              	.LVL49:
 470 012c 3A4B     		ldr	r3, .L37
 471 012e 1C70     		strb	r4, [r3]
 110:.\BLEClient.c ****     if(CYBLE_GAP_ADDR_TYPE_PUBLIC==ScanReport->peerAddrType)
 472              		.loc 1 110 0
 473 0130 661E     		sub	r6, r4, #1
 474 0132 3301     		lsl	r3, r6, #4
 475 0134 9B1B     		sub	r3, r3, r6
 476 0136 5B00     		lsl	r3, r3, #1
 477 0138 3848     		ldr	r0, .L37+4
 478 013a C018     		add	r0, r0, r3
 479 013c 6968     		ldr	r1, [r5, #4]
 480 013e 0622     		mov	r2, #6
 481 0140 FFF7FEFF 		bl	memcpy
 482              	.LVL50:
 111:.\BLEClient.c ****     {
 483              		.loc 1 111 0
 484 0144 6B78     		ldrb	r3, [r5, #1]
 485 0146 002B     		cmp	r3, #0
 486 0148 07D1     		bne	.L30
 113:.\BLEClient.c **** //        DeviceInfo[DeviceCount-1].DeviceList.type='P';
 487              		.loc 1 113 0
 488 014a 3301     		lsl	r3, r6, #4
 489 014c 9B1B     		sub	r3, r3, r6
 490 014e 5B00     		lsl	r3, r3, #1
 491 0150 324A     		ldr	r2, .L37+4
 492 0152 D318     		add	r3, r2, r3
 493 0154 0022     		mov	r2, #0
 494 0156 9A71     		strb	r2, [r3, #6]
 495 0158 06E0     		b	.L31
ARM GAS  C:\Users\Helon\AppData\Local\Temp\ccFTP8XO.s 			page 17


 496              	.L30:
 118:.\BLEClient.c **** //        DeviceInfo[DeviceCount-1].DeviceList.type='R';
 497              		.loc 1 118 0
 498 015a 3301     		lsl	r3, r6, #4
 499 015c 9B1B     		sub	r3, r3, r6
 500 015e 5B00     		lsl	r3, r3, #1
 501 0160 2E4A     		ldr	r2, .L37+4
 502 0162 D318     		add	r3, r2, r3
 503 0164 0122     		mov	r2, #1
 504 0166 9A71     		strb	r2, [r3, #6]
 505              	.L31:
 121:.\BLEClient.c ****     if(CYBLE_GAPC_CONN_UNDIRECTED_ADV==ScanReport->eventType)   
 506              		.loc 1 121 0
 507 0168 3301     		lsl	r3, r6, #4
 508 016a 9B1B     		sub	r3, r3, r6
 509 016c 5B00     		lsl	r3, r3, #1
 510 016e 2B4A     		ldr	r2, .L37+4
 511 0170 D318     		add	r3, r2, r3
 512 0172 DC71     		strb	r4, [r3, #7]
 122:.\BLEClient.c ****     {
 513              		.loc 1 122 0
 514 0174 2B78     		ldrb	r3, [r5]
 515 0176 002B     		cmp	r3, #0
 516 0178 4CD1     		bne	.L18
 124:.\BLEClient.c ****         Parser_adv_data_scan_data(ScanReport->data,ScanReport->dataLen);
 517              		.loc 1 124 0
 518 017a 2A7C     		ldrb	r2, [r5, #16]
 519 017c 274C     		ldr	r4, .L37+4
 520 017e 3301     		lsl	r3, r6, #4
 521 0180 9E1B     		sub	r6, r3, r6
 522 0182 7600     		lsl	r6, r6, #1
 523 0184 A619     		add	r6, r4, r6
 524 0186 3272     		strb	r2, [r6, #8]
 125:.\BLEClient.c ****         if(DeviceInfo[DeviceCount-1].ScanName)
 525              		.loc 1 125 0
 526 0188 E868     		ldr	r0, [r5, #12]
 527 018a 297A     		ldrb	r1, [r5, #8]
 528 018c FFF7FEFF 		bl	Parser_adv_data_scan_data
 529              	.LVL51:
 126:.\BLEClient.c ****             {
 530              		.loc 1 126 0
 531 0190 214B     		ldr	r3, .L37
 532 0192 1B78     		ldrb	r3, [r3]
 533 0194 5A1E     		sub	r2, r3, #1
 534 0196 1301     		lsl	r3, r2, #4
 535 0198 9B1A     		sub	r3, r3, r2
 536 019a 5B00     		lsl	r3, r3, #1
 537 019c E318     		add	r3, r4, r3
 538 019e 5B7F     		ldrb	r3, [r3, #29]
 539 01a0 002B     		cmp	r3, #0
 540 01a2 07D0     		beq	.L32
 128:.\BLEClient.c ****             }
 541              		.loc 1 128 0
 542 01a4 1301     		lsl	r3, r2, #4
 543 01a6 9B1A     		sub	r3, r3, r2
 544 01a8 5B00     		lsl	r3, r3, #1
 545 01aa 1C4A     		ldr	r2, .L37+4
ARM GAS  C:\Users\Helon\AppData\Local\Temp\ccFTP8XO.s 			page 18


 546 01ac D318     		add	r3, r2, r3
 547 01ae 0022     		mov	r2, #0
 548 01b0 5A77     		strb	r2, [r3, #29]
 549 01b2 0FE0     		b	.L33
 550              	.L32:
 132:.\BLEClient.c ****                 memcpy(DeviceInfo[DeviceCount-1].DeviceName,"NULL",sizeof("NULL"));
 551              		.loc 1 132 0
 552 01b4 1301     		lsl	r3, r2, #4
 553 01b6 9B1A     		sub	r3, r3, r2
 554 01b8 5B00     		lsl	r3, r3, #1
 555 01ba 184C     		ldr	r4, .L37+4
 556 01bc E418     		add	r4, r4, r3
 557 01be 0934     		add	r4, r4, #9
 558 01c0 201C     		mov	r0, r4
 559 01c2 0021     		mov	r1, #0
 560 01c4 1422     		mov	r2, #20
 561 01c6 FFF7FEFF 		bl	memset
 562              	.LVL52:
 133:.\BLEClient.c ****             }
 563              		.loc 1 133 0
 564 01ca 201C     		mov	r0, r4
 565 01cc 1449     		ldr	r1, .L37+8
 566 01ce 0522     		mov	r2, #5
 567 01d0 FFF7FEFF 		bl	memcpy
 568              	.LVL53:
 569              	.L33:
 148:.\BLEClient.c ****             {
 570              		.loc 1 148 0
 571 01d4 104B     		ldr	r3, .L37
 572 01d6 1B78     		ldrb	r3, [r3]
 573 01d8 5A1E     		sub	r2, r3, #1
 574 01da 1301     		lsl	r3, r2, #4
 575 01dc 9B1A     		sub	r3, r3, r2
 576 01de 5B00     		lsl	r3, r3, #1
 577 01e0 0E48     		ldr	r0, .L37+4
 578 01e2 C018     		add	r0, r0, r3
 579 01e4 0930     		add	r0, r0, #9
 580 01e6 0F49     		ldr	r1, .L37+12
 581 01e8 0A22     		mov	r2, #10
 582 01ea FFF7FEFF 		bl	strncmp
 583              	.LVL54:
 584 01ee 0028     		cmp	r0, #0
 585 01f0 04D1     		bne	.L36
 150:.\BLEClient.c **** //                CyDelay(2000);
 586              		.loc 1 150 0
 587 01f2 FFF7FEFF 		bl	CyBle_GapcStopScan
 588              	.LVL55:
 152:.\BLEClient.c **** //                 printf("%d\r\n",CyBle_GetState());                
 589              		.loc 1 152 0
 590 01f6 0122     		mov	r2, #1
 591 01f8 0B4B     		ldr	r3, .L37+16
 592 01fa 1A70     		strb	r2, [r3]
 593              	.L36:
 158:.\BLEClient.c ****     }
 594              		.loc 1 158 0 discriminator 5
 595 01fc FFF7FEFF 		bl	UART_SpiUartGetTxBufferSize
 596              	.LVL56:
ARM GAS  C:\Users\Helon\AppData\Local\Temp\ccFTP8XO.s 			page 19


 597 0200 0A4B     		ldr	r3, .L37+20
 598 0202 1B68     		ldr	r3, [r3]
 599 0204 8022     		mov	r2, #128
 600 0206 1202     		lsl	r2, r2, #8
 601 0208 1340     		and	r3, r2
 602 020a 00D0     		beq	.L35
 158:.\BLEClient.c ****     }
 603              		.loc 1 158 0 is_stmt 0
 604 020c 0123     		mov	r3, #1
 605              	.L35:
 158:.\BLEClient.c ****     }
 606              		.loc 1 158 0 discriminator 4
 607 020e C318     		add	r3, r0, r3
 608 0210 002B     		cmp	r3, #0
 609 0212 F3D1     		bne	.L36
 610              	.L18:
 161:.\BLEClient.c **** 
 611              		.loc 1 161 0 is_stmt 1
 612              		@ sp needed
 613              	.LVL57:
 614 0214 F8BD     		pop	{r3, r4, r5, r6, r7, pc}
 615              	.L38:
 616 0216 C046     		.align	2
 617              	.L37:
 618 0218 00000000 		.word	.LANCHOR0
 619 021c 00000000 		.word	DeviceInfo
 620 0220 00000000 		.word	.LC5
 621 0224 08000000 		.word	.LC7
 622 0228 00000000 		.word	STOP_SCAN_FLAG
 623 022c 08022540 		.word	1076167176
 624              		.cfi_endproc
 625              	.LFE37:
 626              		.size	HandleScanDevices, .-HandleScanDevices
 627              		.section	.text.ScanDeviceInfoInit,"ax",%progbits
 628              		.align	2
 629              		.global	ScanDeviceInfoInit
 630              		.code	16
 631              		.thumb_func
 632              		.type	ScanDeviceInfoInit, %function
 633              	ScanDeviceInfoInit:
 634              	.LFB39:
 385:.\BLEClient.c **** 
 386:.\BLEClient.c **** 
 387:.\BLEClient.c **** /******************************************************************************
 388:.\BLEClient.c **** * Function Name: ScanDeviceInfoInit
 389:.\BLEClient.c **** ***************************************************************************//**
 390:.\BLEClient.c **** * 
 391:.\BLEClient.c **** *  ÂàùÂßãÂåñÂ≠òÊîæÊâ´ÊèèÂà∞ÁöÑBLEËÆæÂ§á‰ø°ÊÅØÁ©∫Èó¥
 392:.\BLEClient.c **** * 
 393:.\BLEClient.c **** * \return
 394:.\BLEClient.c **** *  None
 395:.\BLEClient.c **** * 
 396:.\BLEClient.c **** ******************************************************************************/
 397:.\BLEClient.c **** void ScanDeviceInfoInit(void)
 398:.\BLEClient.c **** {
 635              		.loc 1 398 0
 636              		.cfi_startproc
ARM GAS  C:\Users\Helon\AppData\Local\Temp\ccFTP8XO.s 			page 20


 399:.\BLEClient.c ****     uint8_t i;
 400:.\BLEClient.c ****     if(DeviceCount>DeviceListCount)
 637              		.loc 1 400 0
 638 0000 164B     		ldr	r3, .L46
 639 0002 1878     		ldrb	r0, [r3]
 640 0004 0A28     		cmp	r0, #10
 641 0006 10D8     		bhi	.L45
 642 0008 0021     		mov	r1, #0
 643 000a 20E0     		b	.L41
 644              	.LVL58:
 645              	.L42:
 401:.\BLEClient.c ****     {
 402:.\BLEClient.c ****         for(i=0;i<DeviceListCount;i++)
 403:.\BLEClient.c ****         {
 404:.\BLEClient.c ****            memset(DeviceInfo[i].DeviceList.bdAddr,0,6);
 646              		.loc 1 404 0 discriminator 3
 647 000c 0B01     		lsl	r3, r1, #4
 648 000e 5B1A     		sub	r3, r3, r1
 649 0010 5B00     		lsl	r3, r3, #1
 650 0012 134A     		ldr	r2, .L46+4
 651 0014 9B18     		add	r3, r3, r2
 652 0016 0022     		mov	r2, #0
 653 0018 1A70     		strb	r2, [r3]
 654 001a 5A70     		strb	r2, [r3, #1]
 655 001c 9A70     		strb	r2, [r3, #2]
 656 001e DA70     		strb	r2, [r3, #3]
 657 0020 1A71     		strb	r2, [r3, #4]
 658 0022 5A71     		strb	r2, [r3, #5]
 402:.\BLEClient.c ****         {
 659              		.loc 1 402 0 discriminator 3
 660 0024 0131     		add	r1, r1, #1
 661              	.LVL59:
 662 0026 C9B2     		uxtb	r1, r1
 663              	.LVL60:
 664 0028 00E0     		b	.L40
 665              	.LVL61:
 666              	.L45:
 667 002a 0021     		mov	r1, #0
 668              	.L40:
 669              	.LVL62:
 402:.\BLEClient.c ****         {
 670              		.loc 1 402 0 is_stmt 0 discriminator 1
 671 002c 0929     		cmp	r1, #9
 672 002e EDD9     		bls	.L42
 673 0030 0FE0     		b	.L43
 674              	.L44:
 405:.\BLEClient.c ****         
 406:.\BLEClient.c ****         }        
 407:.\BLEClient.c ****     }
 408:.\BLEClient.c ****     else
 409:.\BLEClient.c ****     {
 410:.\BLEClient.c ****         for(i=0;i<DeviceCount;i++)
 411:.\BLEClient.c ****         {
 412:.\BLEClient.c ****             memset(DeviceInfo[i].DeviceList.bdAddr,0,6);
 675              		.loc 1 412 0 is_stmt 1 discriminator 3
 676 0032 0B01     		lsl	r3, r1, #4
 677 0034 5B1A     		sub	r3, r3, r1
ARM GAS  C:\Users\Helon\AppData\Local\Temp\ccFTP8XO.s 			page 21


 678 0036 5B00     		lsl	r3, r3, #1
 679 0038 094A     		ldr	r2, .L46+4
 680 003a 9B18     		add	r3, r3, r2
 681 003c 0022     		mov	r2, #0
 682 003e 1A70     		strb	r2, [r3]
 683 0040 5A70     		strb	r2, [r3, #1]
 684 0042 9A70     		strb	r2, [r3, #2]
 685 0044 DA70     		strb	r2, [r3, #3]
 686 0046 1A71     		strb	r2, [r3, #4]
 687 0048 5A71     		strb	r2, [r3, #5]
 410:.\BLEClient.c ****         {
 688              		.loc 1 410 0 discriminator 3
 689 004a 0131     		add	r1, r1, #1
 690              	.LVL63:
 691 004c C9B2     		uxtb	r1, r1
 692              	.LVL64:
 693              	.L41:
 410:.\BLEClient.c ****         {
 694              		.loc 1 410 0 is_stmt 0 discriminator 1
 695 004e 8142     		cmp	r1, r0
 696 0050 EFD3     		bcc	.L44
 697              	.L43:
 413:.\BLEClient.c ****         }
 414:.\BLEClient.c ****     }
 415:.\BLEClient.c ****     //ËÆ°Êï∞Êâ´ÊèèÂà∞ÁöÑËÆæÂ§áÊ∏ÖÈõ∂Ôºå‰ª•‰æøÂÜçÊ¨°Êâ´ÊèèÊó∂Êâ´ÊèèÂà∞ÁöÑËÆæÂ§á‰ø°ÊÅØË¶ÜÁõñÊóßÁöÑ‰ø°
 416:.\BLEClient.c ****       DeviceCount=0;
 698              		.loc 1 416 0 is_stmt 1
 699 0052 024B     		ldr	r3, .L46
 700 0054 0022     		mov	r2, #0
 701 0056 1A70     		strb	r2, [r3]
 417:.\BLEClient.c ****       flag=0;
 702              		.loc 1 417 0
 703 0058 5A70     		strb	r2, [r3, #1]
 418:.\BLEClient.c **** 
 419:.\BLEClient.c **** }
 704              		.loc 1 419 0
 705              		@ sp needed
 706 005a 7047     		bx	lr
 707              	.L47:
 708              		.align	2
 709              	.L46:
 710 005c 00000000 		.word	.LANCHOR0
 711 0060 00000000 		.word	DeviceInfo
 712              		.cfi_endproc
 713              	.LFE39:
 714              		.size	ScanDeviceInfoInit, .-ScanDeviceInfoInit
 715              		.global	flag
 716              		.global	DeviceCount
 717              		.comm	DeviceInfo,300,4
 718              		.section	.rodata.str1.4,"aMS",%progbits,1
 719              		.align	2
 720              	.LC5:
 721 0000 4E554C4C 		.ascii	"NULL\000"
 721      00
 722 0005 000000   		.space	3
 723              	.LC7:
 724 0008 424C4542 		.ascii	"BLEBLE-105\000"
ARM GAS  C:\Users\Helon\AppData\Local\Temp\ccFTP8XO.s 			page 22


 724      4C452D31 
 724      303500
 725 0013 00       		.bss
 726              		.set	.LANCHOR0,. + 0
 727              		.type	DeviceCount, %object
 728              		.size	DeviceCount, 1
 729              	DeviceCount:
 730 0000 00       		.space	1
 731              		.type	flag, %object
 732              		.size	flag, 1
 733              	flag:
 734 0001 00       		.space	1
 735              		.text
 736              	.Letext0:
 737              		.file 2 "c:\\program files (x86)\\cypress\\psoc creator\\3.3\\psoc creator\\import\\gnu\\arm\\4.9.
 738              		.file 3 "c:\\program files (x86)\\cypress\\psoc creator\\3.3\\psoc creator\\import\\gnu\\arm\\4.9.
 739              		.file 4 "Generated_Source\\PSoC4/cytypes.h"
 740              		.file 5 "c:\\program files (x86)\\cypress\\psoc creator\\3.3\\psoc creator\\import\\gnu\\arm\\4.9.
 741              		.file 6 "Generated_Source\\PSoC4/BLE_Stack.h"
 742              		.file 7 "Generated_Source\\PSoC4/BLE_StackGap.h"
 743              		.file 8 "Generated_Source\\PSoC4/BLE.h"
 744              		.file 9 ".\\BLEClient.h"
 745              		.file 10 "c:\\program files (x86)\\cypress\\psoc creator\\3.3\\psoc creator\\import\\gnu\\arm\\4.9
 746              		.file 11 "Generated_Source\\PSoC4/UART_SPI_UART.h"