ARM GAS  C:\Users\Helon\AppData\Local\Temp\ccnwpPdR.s 			page 1


   1              		.cpu cortex-m0
   2              		.fpu softvfp
   3              		.eabi_attribute 20, 1
   4              		.eabi_attribute 21, 1
   5              		.eabi_attribute 23, 3
   6              		.eabi_attribute 24, 1
   7              		.eabi_attribute 25, 1
   8              		.eabi_attribute 26, 1
   9              		.eabi_attribute 30, 1
  10              		.eabi_attribute 34, 0
  11              		.eabi_attribute 18, 4
  12              		.code	16
  13              		.file	"UART_UART.c"
  14              		.text
  15              	.Ltext0:
  16              		.cfi_sections	.debug_frame
  17              		.section	.text.UART_UART_WAKEUP_ISR,"ax",%progbits
  18              		.align	2
  19              		.global	UART_UART_WAKEUP_ISR
  20              		.code	16
  21              		.thumb_func
  22              		.type	UART_UART_WAKEUP_ISR, %function
  23              	UART_UART_WAKEUP_ISR:
  24              	.LFB18:
  25              		.file 1 ".\\Generated_Source\\PSoC4\\UART_UART.c"
   1:.\Generated_Source\PSoC4/UART_UART.c **** /*******************************************************************************
   2:.\Generated_Source\PSoC4/UART_UART.c **** * File Name: UART_UART.c
   3:.\Generated_Source\PSoC4/UART_UART.c **** * Version 3.10
   4:.\Generated_Source\PSoC4/UART_UART.c **** *
   5:.\Generated_Source\PSoC4/UART_UART.c **** * Description:
   6:.\Generated_Source\PSoC4/UART_UART.c **** *  This file provides the source code to the API for the SCB Component in
   7:.\Generated_Source\PSoC4/UART_UART.c **** *  UART mode.
   8:.\Generated_Source\PSoC4/UART_UART.c **** *
   9:.\Generated_Source\PSoC4/UART_UART.c **** * Note:
  10:.\Generated_Source\PSoC4/UART_UART.c **** *
  11:.\Generated_Source\PSoC4/UART_UART.c **** *******************************************************************************
  12:.\Generated_Source\PSoC4/UART_UART.c **** * Copyright 2013-2015, Cypress Semiconductor Corporation.  All rights reserved.
  13:.\Generated_Source\PSoC4/UART_UART.c **** * You may use this file only in accordance with the license, terms, conditions,
  14:.\Generated_Source\PSoC4/UART_UART.c **** * disclaimers, and limitations in the end user license agreement accompanying
  15:.\Generated_Source\PSoC4/UART_UART.c **** * the software package with which this file was provided.
  16:.\Generated_Source\PSoC4/UART_UART.c **** *******************************************************************************/
  17:.\Generated_Source\PSoC4/UART_UART.c **** 
  18:.\Generated_Source\PSoC4/UART_UART.c **** #include "UART_PVT.h"
  19:.\Generated_Source\PSoC4/UART_UART.c **** #include "UART_SPI_UART_PVT.h"
  20:.\Generated_Source\PSoC4/UART_UART.c **** #include "cyapicallbacks.h"
  21:.\Generated_Source\PSoC4/UART_UART.c **** 
  22:.\Generated_Source\PSoC4/UART_UART.c **** #if(UART_SCB_MODE_UNCONFIG_CONST_CFG)
  23:.\Generated_Source\PSoC4/UART_UART.c **** 
  24:.\Generated_Source\PSoC4/UART_UART.c ****     /***************************************
  25:.\Generated_Source\PSoC4/UART_UART.c ****     *  Configuration Structure Initialization
  26:.\Generated_Source\PSoC4/UART_UART.c ****     ***************************************/
  27:.\Generated_Source\PSoC4/UART_UART.c **** 
  28:.\Generated_Source\PSoC4/UART_UART.c ****     const UART_UART_INIT_STRUCT UART_configUart =
  29:.\Generated_Source\PSoC4/UART_UART.c ****     {
  30:.\Generated_Source\PSoC4/UART_UART.c ****         UART_UART_SUB_MODE,
  31:.\Generated_Source\PSoC4/UART_UART.c ****         UART_UART_DIRECTION,
  32:.\Generated_Source\PSoC4/UART_UART.c ****         UART_UART_DATA_BITS_NUM,
ARM GAS  C:\Users\Helon\AppData\Local\Temp\ccnwpPdR.s 			page 2


  33:.\Generated_Source\PSoC4/UART_UART.c ****         UART_UART_PARITY_TYPE,
  34:.\Generated_Source\PSoC4/UART_UART.c ****         UART_UART_STOP_BITS_NUM,
  35:.\Generated_Source\PSoC4/UART_UART.c ****         UART_UART_OVS_FACTOR,
  36:.\Generated_Source\PSoC4/UART_UART.c ****         UART_UART_IRDA_LOW_POWER,
  37:.\Generated_Source\PSoC4/UART_UART.c ****         UART_UART_MEDIAN_FILTER_ENABLE,
  38:.\Generated_Source\PSoC4/UART_UART.c ****         UART_UART_RETRY_ON_NACK,
  39:.\Generated_Source\PSoC4/UART_UART.c ****         UART_UART_IRDA_POLARITY,
  40:.\Generated_Source\PSoC4/UART_UART.c ****         UART_UART_DROP_ON_PARITY_ERR,
  41:.\Generated_Source\PSoC4/UART_UART.c ****         UART_UART_DROP_ON_FRAME_ERR,
  42:.\Generated_Source\PSoC4/UART_UART.c ****         UART_UART_WAKE_ENABLE,
  43:.\Generated_Source\PSoC4/UART_UART.c ****         0u,
  44:.\Generated_Source\PSoC4/UART_UART.c ****         NULL,
  45:.\Generated_Source\PSoC4/UART_UART.c ****         0u,
  46:.\Generated_Source\PSoC4/UART_UART.c ****         NULL,
  47:.\Generated_Source\PSoC4/UART_UART.c ****         UART_UART_MP_MODE_ENABLE,
  48:.\Generated_Source\PSoC4/UART_UART.c ****         UART_UART_MP_ACCEPT_ADDRESS,
  49:.\Generated_Source\PSoC4/UART_UART.c ****         UART_UART_MP_RX_ADDRESS,
  50:.\Generated_Source\PSoC4/UART_UART.c ****         UART_UART_MP_RX_ADDRESS_MASK,
  51:.\Generated_Source\PSoC4/UART_UART.c ****         (uint32) UART_SCB_IRQ_INTERNAL,
  52:.\Generated_Source\PSoC4/UART_UART.c ****         UART_UART_INTR_RX_MASK,
  53:.\Generated_Source\PSoC4/UART_UART.c ****         UART_UART_RX_TRIGGER_LEVEL,
  54:.\Generated_Source\PSoC4/UART_UART.c ****         UART_UART_INTR_TX_MASK,
  55:.\Generated_Source\PSoC4/UART_UART.c ****         UART_UART_TX_TRIGGER_LEVEL,
  56:.\Generated_Source\PSoC4/UART_UART.c ****         (uint8) UART_UART_BYTE_MODE_ENABLE,
  57:.\Generated_Source\PSoC4/UART_UART.c ****         (uint8) UART_UART_CTS_ENABLE,
  58:.\Generated_Source\PSoC4/UART_UART.c ****         (uint8) UART_UART_CTS_POLARITY,
  59:.\Generated_Source\PSoC4/UART_UART.c ****         (uint8) UART_UART_RTS_POLARITY,
  60:.\Generated_Source\PSoC4/UART_UART.c ****         (uint8) UART_UART_RTS_FIFO_LEVEL
  61:.\Generated_Source\PSoC4/UART_UART.c ****     };
  62:.\Generated_Source\PSoC4/UART_UART.c **** 
  63:.\Generated_Source\PSoC4/UART_UART.c **** 
  64:.\Generated_Source\PSoC4/UART_UART.c ****     /*******************************************************************************
  65:.\Generated_Source\PSoC4/UART_UART.c ****     * Function Name: UART_UartInit
  66:.\Generated_Source\PSoC4/UART_UART.c ****     ********************************************************************************
  67:.\Generated_Source\PSoC4/UART_UART.c ****     *
  68:.\Generated_Source\PSoC4/UART_UART.c ****     * Summary:
  69:.\Generated_Source\PSoC4/UART_UART.c ****     *  Configures the SCB for the UART operation.
  70:.\Generated_Source\PSoC4/UART_UART.c ****     *
  71:.\Generated_Source\PSoC4/UART_UART.c ****     * Parameters:
  72:.\Generated_Source\PSoC4/UART_UART.c ****     *  config:  Pointer to a structure that contains the following ordered list of
  73:.\Generated_Source\PSoC4/UART_UART.c ****     *           fields. These fields match the selections available in the
  74:.\Generated_Source\PSoC4/UART_UART.c ****     *           customizer.
  75:.\Generated_Source\PSoC4/UART_UART.c ****     *
  76:.\Generated_Source\PSoC4/UART_UART.c ****     * Return:
  77:.\Generated_Source\PSoC4/UART_UART.c ****     *  None
  78:.\Generated_Source\PSoC4/UART_UART.c ****     *
  79:.\Generated_Source\PSoC4/UART_UART.c ****     *******************************************************************************/
  80:.\Generated_Source\PSoC4/UART_UART.c ****     void UART_UartInit(const UART_UART_INIT_STRUCT *config)
  81:.\Generated_Source\PSoC4/UART_UART.c ****     {
  82:.\Generated_Source\PSoC4/UART_UART.c ****         uint32 pinsConfig;
  83:.\Generated_Source\PSoC4/UART_UART.c **** 
  84:.\Generated_Source\PSoC4/UART_UART.c ****         if (NULL == config)
  85:.\Generated_Source\PSoC4/UART_UART.c ****         {
  86:.\Generated_Source\PSoC4/UART_UART.c ****             CYASSERT(0u != 0u); /* Halt execution due to bad function parameter */
  87:.\Generated_Source\PSoC4/UART_UART.c ****         }
  88:.\Generated_Source\PSoC4/UART_UART.c ****         else
  89:.\Generated_Source\PSoC4/UART_UART.c ****         {
ARM GAS  C:\Users\Helon\AppData\Local\Temp\ccnwpPdR.s 			page 3


  90:.\Generated_Source\PSoC4/UART_UART.c ****             /* Get direction to configure UART pins: TX, RX or TX+RX */
  91:.\Generated_Source\PSoC4/UART_UART.c ****             pinsConfig  = config->direction;
  92:.\Generated_Source\PSoC4/UART_UART.c **** 
  93:.\Generated_Source\PSoC4/UART_UART.c ****         #if !(UART_CY_SCBIP_V0 || UART_CY_SCBIP_V1)
  94:.\Generated_Source\PSoC4/UART_UART.c ****             /* Add RTS and CTS pins to configure */
  95:.\Generated_Source\PSoC4/UART_UART.c ****             pinsConfig |= (0u != config->rtsRxFifoLevel) ? (UART_UART_RTS_PIN_ENABLE) : (0u);
  96:.\Generated_Source\PSoC4/UART_UART.c ****             pinsConfig |= (0u != config->enableCts)      ? (UART_UART_CTS_PIN_ENABLE) : (0u);
  97:.\Generated_Source\PSoC4/UART_UART.c ****         #endif /* !(UART_CY_SCBIP_V0 || UART_CY_SCBIP_V1) */
  98:.\Generated_Source\PSoC4/UART_UART.c **** 
  99:.\Generated_Source\PSoC4/UART_UART.c ****             /* Configure pins */
 100:.\Generated_Source\PSoC4/UART_UART.c ****             UART_SetPins(UART_SCB_MODE_UART, config->mode, pinsConfig);
 101:.\Generated_Source\PSoC4/UART_UART.c **** 
 102:.\Generated_Source\PSoC4/UART_UART.c ****             /* Store internal configuration */
 103:.\Generated_Source\PSoC4/UART_UART.c ****             UART_scbMode       = (uint8) UART_SCB_MODE_UART;
 104:.\Generated_Source\PSoC4/UART_UART.c ****             UART_scbEnableWake = (uint8) config->enableWake;
 105:.\Generated_Source\PSoC4/UART_UART.c ****             UART_scbEnableIntr = (uint8) config->enableInterrupt;
 106:.\Generated_Source\PSoC4/UART_UART.c **** 
 107:.\Generated_Source\PSoC4/UART_UART.c ****             /* Set RX direction internal variables */
 108:.\Generated_Source\PSoC4/UART_UART.c ****             UART_rxBuffer      =         config->rxBuffer;
 109:.\Generated_Source\PSoC4/UART_UART.c ****             UART_rxDataBits    = (uint8) config->dataBits;
 110:.\Generated_Source\PSoC4/UART_UART.c ****             UART_rxBufferSize  = (uint8) config->rxBufferSize;
 111:.\Generated_Source\PSoC4/UART_UART.c **** 
 112:.\Generated_Source\PSoC4/UART_UART.c ****             /* Set TX direction internal variables */
 113:.\Generated_Source\PSoC4/UART_UART.c ****             UART_txBuffer      =         config->txBuffer;
 114:.\Generated_Source\PSoC4/UART_UART.c ****             UART_txDataBits    = (uint8) config->dataBits;
 115:.\Generated_Source\PSoC4/UART_UART.c ****             UART_txBufferSize  = (uint8) config->txBufferSize;
 116:.\Generated_Source\PSoC4/UART_UART.c **** 
 117:.\Generated_Source\PSoC4/UART_UART.c ****             /* Configure UART interface */
 118:.\Generated_Source\PSoC4/UART_UART.c ****             if(UART_UART_MODE_IRDA == config->mode)
 119:.\Generated_Source\PSoC4/UART_UART.c ****             {
 120:.\Generated_Source\PSoC4/UART_UART.c ****                 /* OVS settings: IrDA */
 121:.\Generated_Source\PSoC4/UART_UART.c ****                 UART_CTRL_REG  = ((0u != config->enableIrdaLowPower) ?
 122:.\Generated_Source\PSoC4/UART_UART.c ****                                                 (UART_UART_GET_CTRL_OVS_IRDA_LP(config->oversample)
 123:.\Generated_Source\PSoC4/UART_UART.c ****                                                 (UART_CTRL_OVS_IRDA_OVS16));
 124:.\Generated_Source\PSoC4/UART_UART.c ****             }
 125:.\Generated_Source\PSoC4/UART_UART.c ****             else
 126:.\Generated_Source\PSoC4/UART_UART.c ****             {
 127:.\Generated_Source\PSoC4/UART_UART.c ****                 /* OVS settings: UART and SmartCard */
 128:.\Generated_Source\PSoC4/UART_UART.c ****                 UART_CTRL_REG  = UART_GET_CTRL_OVS(config->oversample);
 129:.\Generated_Source\PSoC4/UART_UART.c ****             }
 130:.\Generated_Source\PSoC4/UART_UART.c **** 
 131:.\Generated_Source\PSoC4/UART_UART.c ****             UART_CTRL_REG     |= UART_GET_CTRL_BYTE_MODE  (config->enableByteMode)      |
 132:.\Generated_Source\PSoC4/UART_UART.c ****                                              UART_GET_CTRL_ADDR_ACCEPT(config->multiprocAcceptAddr)
 133:.\Generated_Source\PSoC4/UART_UART.c ****                                              UART_CTRL_UART;
 134:.\Generated_Source\PSoC4/UART_UART.c **** 
 135:.\Generated_Source\PSoC4/UART_UART.c ****             /* Configure sub-mode: UART, SmartCard or IrDA */
 136:.\Generated_Source\PSoC4/UART_UART.c ****             UART_UART_CTRL_REG = UART_GET_UART_CTRL_MODE(config->mode);
 137:.\Generated_Source\PSoC4/UART_UART.c **** 
 138:.\Generated_Source\PSoC4/UART_UART.c ****             /* Configure RX direction */
 139:.\Generated_Source\PSoC4/UART_UART.c ****             UART_UART_RX_CTRL_REG = UART_GET_UART_RX_CTRL_MODE(config->stopBits)              |
 140:.\Generated_Source\PSoC4/UART_UART.c ****                                         UART_GET_UART_RX_CTRL_POLARITY(config->enableInvertedRx)   
 141:.\Generated_Source\PSoC4/UART_UART.c ****                                         UART_GET_UART_RX_CTRL_MP_MODE(config->enableMultiproc)     
 142:.\Generated_Source\PSoC4/UART_UART.c ****                                         UART_GET_UART_RX_CTRL_DROP_ON_PARITY_ERR(config->dropOnPari
 143:.\Generated_Source\PSoC4/UART_UART.c ****                                         UART_GET_UART_RX_CTRL_DROP_ON_FRAME_ERR(config->dropOnFrame
 144:.\Generated_Source\PSoC4/UART_UART.c **** 
 145:.\Generated_Source\PSoC4/UART_UART.c ****             if(UART_UART_PARITY_NONE != config->parity)
 146:.\Generated_Source\PSoC4/UART_UART.c ****             {
ARM GAS  C:\Users\Helon\AppData\Local\Temp\ccnwpPdR.s 			page 4


 147:.\Generated_Source\PSoC4/UART_UART.c ****                UART_UART_RX_CTRL_REG |= UART_GET_UART_RX_CTRL_PARITY(config->parity) |
 148:.\Generated_Source\PSoC4/UART_UART.c ****                                                     UART_UART_RX_CTRL_PARITY_ENABLED;
 149:.\Generated_Source\PSoC4/UART_UART.c ****             }
 150:.\Generated_Source\PSoC4/UART_UART.c **** 
 151:.\Generated_Source\PSoC4/UART_UART.c ****             UART_RX_CTRL_REG      = UART_GET_RX_CTRL_DATA_WIDTH(config->dataBits)       |
 152:.\Generated_Source\PSoC4/UART_UART.c ****                                                 UART_GET_RX_CTRL_MEDIAN(config->enableMedianFilter)
 153:.\Generated_Source\PSoC4/UART_UART.c ****                                                 UART_GET_UART_RX_CTRL_ENABLED(config->direction);
 154:.\Generated_Source\PSoC4/UART_UART.c **** 
 155:.\Generated_Source\PSoC4/UART_UART.c ****             UART_RX_FIFO_CTRL_REG = UART_GET_RX_FIFO_CTRL_TRIGGER_LEVEL(config->rxTriggerLevel);
 156:.\Generated_Source\PSoC4/UART_UART.c **** 
 157:.\Generated_Source\PSoC4/UART_UART.c ****             /* Configure MP address */
 158:.\Generated_Source\PSoC4/UART_UART.c ****             UART_RX_MATCH_REG     = UART_GET_RX_MATCH_ADDR(config->multiprocAddr) |
 159:.\Generated_Source\PSoC4/UART_UART.c ****                                                 UART_GET_RX_MATCH_MASK(config->multiprocAddrMask);
 160:.\Generated_Source\PSoC4/UART_UART.c **** 
 161:.\Generated_Source\PSoC4/UART_UART.c ****             /* Configure RX direction */
 162:.\Generated_Source\PSoC4/UART_UART.c ****             UART_UART_TX_CTRL_REG = UART_GET_UART_TX_CTRL_MODE(config->stopBits) |
 163:.\Generated_Source\PSoC4/UART_UART.c ****                                                 UART_GET_UART_TX_CTRL_RETRY_NACK(config->enableRetr
 164:.\Generated_Source\PSoC4/UART_UART.c **** 
 165:.\Generated_Source\PSoC4/UART_UART.c ****             if(UART_UART_PARITY_NONE != config->parity)
 166:.\Generated_Source\PSoC4/UART_UART.c ****             {
 167:.\Generated_Source\PSoC4/UART_UART.c ****                UART_UART_TX_CTRL_REG |= UART_GET_UART_TX_CTRL_PARITY(config->parity) |
 168:.\Generated_Source\PSoC4/UART_UART.c ****                                                     UART_UART_TX_CTRL_PARITY_ENABLED;
 169:.\Generated_Source\PSoC4/UART_UART.c ****             }
 170:.\Generated_Source\PSoC4/UART_UART.c **** 
 171:.\Generated_Source\PSoC4/UART_UART.c ****             UART_TX_CTRL_REG      = UART_GET_TX_CTRL_DATA_WIDTH(config->dataBits)    |
 172:.\Generated_Source\PSoC4/UART_UART.c ****                                                 UART_GET_UART_TX_CTRL_ENABLED(config->direction);
 173:.\Generated_Source\PSoC4/UART_UART.c **** 
 174:.\Generated_Source\PSoC4/UART_UART.c ****             UART_TX_FIFO_CTRL_REG = UART_GET_TX_FIFO_CTRL_TRIGGER_LEVEL(config->txTriggerLevel);
 175:.\Generated_Source\PSoC4/UART_UART.c **** 
 176:.\Generated_Source\PSoC4/UART_UART.c ****         #if !(UART_CY_SCBIP_V0 || UART_CY_SCBIP_V1)
 177:.\Generated_Source\PSoC4/UART_UART.c ****             UART_UART_FLOW_CTRL_REG = UART_GET_UART_FLOW_CTRL_CTS_ENABLE(config->enableCts) | \
 178:.\Generated_Source\PSoC4/UART_UART.c ****                                             UART_GET_UART_FLOW_CTRL_CTS_POLARITY (config->ctsPolari
 179:.\Generated_Source\PSoC4/UART_UART.c ****                                             UART_GET_UART_FLOW_CTRL_RTS_POLARITY (config->rtsPolari
 180:.\Generated_Source\PSoC4/UART_UART.c ****                                             UART_GET_UART_FLOW_CTRL_TRIGGER_LEVEL(config->rtsRxFifo
 181:.\Generated_Source\PSoC4/UART_UART.c ****         #endif /* !(UART_CY_SCBIP_V0 || UART_CY_SCBIP_V1) */
 182:.\Generated_Source\PSoC4/UART_UART.c **** 
 183:.\Generated_Source\PSoC4/UART_UART.c ****             /* Configure interrupt with UART handler but do not enable it */
 184:.\Generated_Source\PSoC4/UART_UART.c ****             CyIntDisable    (UART_ISR_NUMBER);
 185:.\Generated_Source\PSoC4/UART_UART.c ****             CyIntSetPriority(UART_ISR_NUMBER, UART_ISR_PRIORITY);
 186:.\Generated_Source\PSoC4/UART_UART.c ****             (void) CyIntSetVector(UART_ISR_NUMBER, &UART_SPI_UART_ISR);
 187:.\Generated_Source\PSoC4/UART_UART.c **** 
 188:.\Generated_Source\PSoC4/UART_UART.c ****             /* Configure WAKE interrupt */
 189:.\Generated_Source\PSoC4/UART_UART.c ****         #if(UART_UART_RX_WAKEUP_IRQ)
 190:.\Generated_Source\PSoC4/UART_UART.c ****             CyIntDisable    (UART_RX_WAKE_ISR_NUMBER);
 191:.\Generated_Source\PSoC4/UART_UART.c ****             CyIntSetPriority(UART_RX_WAKE_ISR_NUMBER, UART_RX_WAKE_ISR_PRIORITY);
 192:.\Generated_Source\PSoC4/UART_UART.c ****             (void) CyIntSetVector(UART_RX_WAKE_ISR_NUMBER, &UART_UART_WAKEUP_ISR);
 193:.\Generated_Source\PSoC4/UART_UART.c ****         #endif /* (UART_UART_RX_WAKEUP_IRQ) */
 194:.\Generated_Source\PSoC4/UART_UART.c **** 
 195:.\Generated_Source\PSoC4/UART_UART.c ****             /* Configure interrupt sources */
 196:.\Generated_Source\PSoC4/UART_UART.c ****             UART_INTR_I2C_EC_MASK_REG = UART_NO_INTR_SOURCES;
 197:.\Generated_Source\PSoC4/UART_UART.c ****             UART_INTR_SPI_EC_MASK_REG = UART_NO_INTR_SOURCES;
 198:.\Generated_Source\PSoC4/UART_UART.c ****             UART_INTR_SLAVE_MASK_REG  = UART_NO_INTR_SOURCES;
 199:.\Generated_Source\PSoC4/UART_UART.c ****             UART_INTR_MASTER_MASK_REG = UART_NO_INTR_SOURCES;
 200:.\Generated_Source\PSoC4/UART_UART.c ****             UART_INTR_RX_MASK_REG     = config->rxInterruptMask;
 201:.\Generated_Source\PSoC4/UART_UART.c ****             UART_INTR_TX_MASK_REG     = config->txInterruptMask;
 202:.\Generated_Source\PSoC4/UART_UART.c **** 
 203:.\Generated_Source\PSoC4/UART_UART.c ****             /* Clear RX buffer indexes */
ARM GAS  C:\Users\Helon\AppData\Local\Temp\ccnwpPdR.s 			page 5


 204:.\Generated_Source\PSoC4/UART_UART.c ****             UART_rxBufferHead     = 0u;
 205:.\Generated_Source\PSoC4/UART_UART.c ****             UART_rxBufferTail     = 0u;
 206:.\Generated_Source\PSoC4/UART_UART.c ****             UART_rxBufferOverflow = 0u;
 207:.\Generated_Source\PSoC4/UART_UART.c **** 
 208:.\Generated_Source\PSoC4/UART_UART.c ****             /* Clear TX buffer indexes */
 209:.\Generated_Source\PSoC4/UART_UART.c ****             UART_txBufferHead = 0u;
 210:.\Generated_Source\PSoC4/UART_UART.c ****             UART_txBufferTail = 0u;
 211:.\Generated_Source\PSoC4/UART_UART.c ****         }
 212:.\Generated_Source\PSoC4/UART_UART.c ****     }
 213:.\Generated_Source\PSoC4/UART_UART.c **** 
 214:.\Generated_Source\PSoC4/UART_UART.c **** #else
 215:.\Generated_Source\PSoC4/UART_UART.c **** 
 216:.\Generated_Source\PSoC4/UART_UART.c ****     /*******************************************************************************
 217:.\Generated_Source\PSoC4/UART_UART.c ****     * Function Name: UART_UartInit
 218:.\Generated_Source\PSoC4/UART_UART.c ****     ********************************************************************************
 219:.\Generated_Source\PSoC4/UART_UART.c ****     *
 220:.\Generated_Source\PSoC4/UART_UART.c ****     * Summary:
 221:.\Generated_Source\PSoC4/UART_UART.c ****     *  Configures the SCB for the UART operation.
 222:.\Generated_Source\PSoC4/UART_UART.c ****     *
 223:.\Generated_Source\PSoC4/UART_UART.c ****     * Parameters:
 224:.\Generated_Source\PSoC4/UART_UART.c ****     *  None
 225:.\Generated_Source\PSoC4/UART_UART.c ****     *
 226:.\Generated_Source\PSoC4/UART_UART.c ****     * Return:
 227:.\Generated_Source\PSoC4/UART_UART.c ****     *  None
 228:.\Generated_Source\PSoC4/UART_UART.c ****     *
 229:.\Generated_Source\PSoC4/UART_UART.c ****     *******************************************************************************/
 230:.\Generated_Source\PSoC4/UART_UART.c ****     void UART_UartInit(void)
 231:.\Generated_Source\PSoC4/UART_UART.c ****     {
 232:.\Generated_Source\PSoC4/UART_UART.c ****         /* Configure UART interface */
 233:.\Generated_Source\PSoC4/UART_UART.c ****         UART_CTRL_REG = UART_UART_DEFAULT_CTRL;
 234:.\Generated_Source\PSoC4/UART_UART.c **** 
 235:.\Generated_Source\PSoC4/UART_UART.c ****         /* Configure sub-mode: UART, SmartCard or IrDA */
 236:.\Generated_Source\PSoC4/UART_UART.c ****         UART_UART_CTRL_REG = UART_UART_DEFAULT_UART_CTRL;
 237:.\Generated_Source\PSoC4/UART_UART.c **** 
 238:.\Generated_Source\PSoC4/UART_UART.c ****         /* Configure RX direction */
 239:.\Generated_Source\PSoC4/UART_UART.c ****         UART_UART_RX_CTRL_REG = UART_UART_DEFAULT_UART_RX_CTRL;
 240:.\Generated_Source\PSoC4/UART_UART.c ****         UART_RX_CTRL_REG      = UART_UART_DEFAULT_RX_CTRL;
 241:.\Generated_Source\PSoC4/UART_UART.c ****         UART_RX_FIFO_CTRL_REG = UART_UART_DEFAULT_RX_FIFO_CTRL;
 242:.\Generated_Source\PSoC4/UART_UART.c ****         UART_RX_MATCH_REG     = UART_UART_DEFAULT_RX_MATCH_REG;
 243:.\Generated_Source\PSoC4/UART_UART.c **** 
 244:.\Generated_Source\PSoC4/UART_UART.c ****         /* Configure TX direction */
 245:.\Generated_Source\PSoC4/UART_UART.c ****         UART_UART_TX_CTRL_REG = UART_UART_DEFAULT_UART_TX_CTRL;
 246:.\Generated_Source\PSoC4/UART_UART.c ****         UART_TX_CTRL_REG      = UART_UART_DEFAULT_TX_CTRL;
 247:.\Generated_Source\PSoC4/UART_UART.c ****         UART_TX_FIFO_CTRL_REG = UART_UART_DEFAULT_TX_FIFO_CTRL;
 248:.\Generated_Source\PSoC4/UART_UART.c **** 
 249:.\Generated_Source\PSoC4/UART_UART.c ****     #if !(UART_CY_SCBIP_V0 || UART_CY_SCBIP_V1)
 250:.\Generated_Source\PSoC4/UART_UART.c ****         UART_UART_FLOW_CTRL_REG = UART_UART_DEFAULT_FLOW_CTRL;
 251:.\Generated_Source\PSoC4/UART_UART.c ****     #endif /* !(UART_CY_SCBIP_V0 || UART_CY_SCBIP_V1) */
 252:.\Generated_Source\PSoC4/UART_UART.c **** 
 253:.\Generated_Source\PSoC4/UART_UART.c ****         /* Configure interrupt with UART handler but do not enable it */
 254:.\Generated_Source\PSoC4/UART_UART.c ****     #if(UART_SCB_IRQ_INTERNAL)
 255:.\Generated_Source\PSoC4/UART_UART.c ****         CyIntDisable    (UART_ISR_NUMBER);
 256:.\Generated_Source\PSoC4/UART_UART.c ****         CyIntSetPriority(UART_ISR_NUMBER, UART_ISR_PRIORITY);
 257:.\Generated_Source\PSoC4/UART_UART.c ****         (void) CyIntSetVector(UART_ISR_NUMBER, &UART_SPI_UART_ISR);
 258:.\Generated_Source\PSoC4/UART_UART.c ****     #endif /* (UART_SCB_IRQ_INTERNAL) */
 259:.\Generated_Source\PSoC4/UART_UART.c **** 
 260:.\Generated_Source\PSoC4/UART_UART.c ****         /* Configure WAKE interrupt */
ARM GAS  C:\Users\Helon\AppData\Local\Temp\ccnwpPdR.s 			page 6


 261:.\Generated_Source\PSoC4/UART_UART.c ****     #if(UART_UART_RX_WAKEUP_IRQ)
 262:.\Generated_Source\PSoC4/UART_UART.c ****         CyIntDisable    (UART_RX_WAKE_ISR_NUMBER);
 263:.\Generated_Source\PSoC4/UART_UART.c ****         CyIntSetPriority(UART_RX_WAKE_ISR_NUMBER, UART_RX_WAKE_ISR_PRIORITY);
 264:.\Generated_Source\PSoC4/UART_UART.c ****         (void) CyIntSetVector(UART_RX_WAKE_ISR_NUMBER, &UART_UART_WAKEUP_ISR);
 265:.\Generated_Source\PSoC4/UART_UART.c ****     #endif /* (UART_UART_RX_WAKEUP_IRQ) */
 266:.\Generated_Source\PSoC4/UART_UART.c **** 
 267:.\Generated_Source\PSoC4/UART_UART.c ****         /* Configure interrupt sources */
 268:.\Generated_Source\PSoC4/UART_UART.c ****         UART_INTR_I2C_EC_MASK_REG = UART_UART_DEFAULT_INTR_I2C_EC_MASK;
 269:.\Generated_Source\PSoC4/UART_UART.c ****         UART_INTR_SPI_EC_MASK_REG = UART_UART_DEFAULT_INTR_SPI_EC_MASK;
 270:.\Generated_Source\PSoC4/UART_UART.c ****         UART_INTR_SLAVE_MASK_REG  = UART_UART_DEFAULT_INTR_SLAVE_MASK;
 271:.\Generated_Source\PSoC4/UART_UART.c ****         UART_INTR_MASTER_MASK_REG = UART_UART_DEFAULT_INTR_MASTER_MASK;
 272:.\Generated_Source\PSoC4/UART_UART.c ****         UART_INTR_RX_MASK_REG     = UART_UART_DEFAULT_INTR_RX_MASK;
 273:.\Generated_Source\PSoC4/UART_UART.c ****         UART_INTR_TX_MASK_REG     = UART_UART_DEFAULT_INTR_TX_MASK;
 274:.\Generated_Source\PSoC4/UART_UART.c **** 
 275:.\Generated_Source\PSoC4/UART_UART.c ****     #if(UART_INTERNAL_RX_SW_BUFFER_CONST)
 276:.\Generated_Source\PSoC4/UART_UART.c ****         UART_rxBufferHead     = 0u;
 277:.\Generated_Source\PSoC4/UART_UART.c ****         UART_rxBufferTail     = 0u;
 278:.\Generated_Source\PSoC4/UART_UART.c ****         UART_rxBufferOverflow = 0u;
 279:.\Generated_Source\PSoC4/UART_UART.c ****     #endif /* (UART_INTERNAL_RX_SW_BUFFER_CONST) */
 280:.\Generated_Source\PSoC4/UART_UART.c **** 
 281:.\Generated_Source\PSoC4/UART_UART.c ****     #if(UART_INTERNAL_TX_SW_BUFFER_CONST)
 282:.\Generated_Source\PSoC4/UART_UART.c ****         UART_txBufferHead = 0u;
 283:.\Generated_Source\PSoC4/UART_UART.c ****         UART_txBufferTail = 0u;
 284:.\Generated_Source\PSoC4/UART_UART.c ****     #endif /* (UART_INTERNAL_TX_SW_BUFFER_CONST) */
 285:.\Generated_Source\PSoC4/UART_UART.c ****     }
 286:.\Generated_Source\PSoC4/UART_UART.c **** #endif /* (UART_SCB_MODE_UNCONFIG_CONST_CFG) */
 287:.\Generated_Source\PSoC4/UART_UART.c **** 
 288:.\Generated_Source\PSoC4/UART_UART.c **** 
 289:.\Generated_Source\PSoC4/UART_UART.c **** /*******************************************************************************
 290:.\Generated_Source\PSoC4/UART_UART.c **** * Function Name: UART_UartPostEnable
 291:.\Generated_Source\PSoC4/UART_UART.c **** ********************************************************************************
 292:.\Generated_Source\PSoC4/UART_UART.c **** *
 293:.\Generated_Source\PSoC4/UART_UART.c **** * Summary:
 294:.\Generated_Source\PSoC4/UART_UART.c **** *  Restores HSIOM settings for the UART output pins (TX and/or RTS) to be 
 295:.\Generated_Source\PSoC4/UART_UART.c **** *  controlled by the SCB UART.
 296:.\Generated_Source\PSoC4/UART_UART.c **** *
 297:.\Generated_Source\PSoC4/UART_UART.c **** * Parameters:
 298:.\Generated_Source\PSoC4/UART_UART.c **** *  None
 299:.\Generated_Source\PSoC4/UART_UART.c **** *
 300:.\Generated_Source\PSoC4/UART_UART.c **** * Return:
 301:.\Generated_Source\PSoC4/UART_UART.c **** *  None
 302:.\Generated_Source\PSoC4/UART_UART.c **** *
 303:.\Generated_Source\PSoC4/UART_UART.c **** *******************************************************************************/
 304:.\Generated_Source\PSoC4/UART_UART.c **** void UART_UartPostEnable(void)
 305:.\Generated_Source\PSoC4/UART_UART.c **** {
 306:.\Generated_Source\PSoC4/UART_UART.c **** #if (UART_SCB_MODE_UNCONFIG_CONST_CFG)
 307:.\Generated_Source\PSoC4/UART_UART.c **** 
 308:.\Generated_Source\PSoC4/UART_UART.c **** #if (UART_TX_SCL_MISO_PIN)
 309:.\Generated_Source\PSoC4/UART_UART.c ****     if (UART_CHECK_TX_SCL_MISO_PIN_USED)
 310:.\Generated_Source\PSoC4/UART_UART.c ****     {
 311:.\Generated_Source\PSoC4/UART_UART.c ****         /* Set SCB UART to drive the output pin */
 312:.\Generated_Source\PSoC4/UART_UART.c ****         UART_SET_HSIOM_SEL(UART_TX_SCL_MISO_HSIOM_REG, UART_TX_SCL_MISO_HSIOM_MASK,
 313:.\Generated_Source\PSoC4/UART_UART.c ****                                        UART_TX_SCL_MISO_HSIOM_POS, UART_HSIOM_UART_SEL);
 314:.\Generated_Source\PSoC4/UART_UART.c ****     }
 315:.\Generated_Source\PSoC4/UART_UART.c **** #endif /* (UART_TX_SCL_MISO_PIN_PIN) */
 316:.\Generated_Source\PSoC4/UART_UART.c **** 
 317:.\Generated_Source\PSoC4/UART_UART.c **** #if (UART_RTS_SS0_PIN)
ARM GAS  C:\Users\Helon\AppData\Local\Temp\ccnwpPdR.s 			page 7


 318:.\Generated_Source\PSoC4/UART_UART.c ****     if (UART_CHECK_RTS_SS0_PIN_USED)
 319:.\Generated_Source\PSoC4/UART_UART.c ****     {
 320:.\Generated_Source\PSoC4/UART_UART.c ****         /* Set SCB UART to drive the output pin */
 321:.\Generated_Source\PSoC4/UART_UART.c ****         UART_SET_HSIOM_SEL(UART_RTS_SS0_HSIOM_REG, UART_RTS_SS0_HSIOM_MASK,
 322:.\Generated_Source\PSoC4/UART_UART.c ****                                        UART_RTS_SS0_HSIOM_POS, UART_HSIOM_UART_SEL);
 323:.\Generated_Source\PSoC4/UART_UART.c ****     }
 324:.\Generated_Source\PSoC4/UART_UART.c **** #endif /* (UART_RTS_SS0_PIN) */
 325:.\Generated_Source\PSoC4/UART_UART.c **** 
 326:.\Generated_Source\PSoC4/UART_UART.c **** #else
 327:.\Generated_Source\PSoC4/UART_UART.c **** #if (UART_UART_TX_PIN)
 328:.\Generated_Source\PSoC4/UART_UART.c ****      /* Set SCB UART to drive the output pin */
 329:.\Generated_Source\PSoC4/UART_UART.c ****     UART_SET_HSIOM_SEL(UART_TX_HSIOM_REG, UART_TX_HSIOM_MASK,
 330:.\Generated_Source\PSoC4/UART_UART.c ****                                    UART_TX_HSIOM_POS, UART_HSIOM_UART_SEL);
 331:.\Generated_Source\PSoC4/UART_UART.c **** #endif /* (UART_UART_TX_PIN) */
 332:.\Generated_Source\PSoC4/UART_UART.c **** 
 333:.\Generated_Source\PSoC4/UART_UART.c **** #if (UART_UART_RTS_PIN)
 334:.\Generated_Source\PSoC4/UART_UART.c ****     /* Set SCB UART to drive the output pin */
 335:.\Generated_Source\PSoC4/UART_UART.c ****     UART_SET_HSIOM_SEL(UART_RTS_HSIOM_REG, UART_RTS_HSIOM_MASK,
 336:.\Generated_Source\PSoC4/UART_UART.c ****                                    UART_RTS_HSIOM_POS, UART_HSIOM_UART_SEL);
 337:.\Generated_Source\PSoC4/UART_UART.c **** #endif /* (UART_UART_RTS_PIN) */
 338:.\Generated_Source\PSoC4/UART_UART.c **** 
 339:.\Generated_Source\PSoC4/UART_UART.c **** #endif /* (UART_SCB_MODE_UNCONFIG_CONST_CFG) */
 340:.\Generated_Source\PSoC4/UART_UART.c **** }
 341:.\Generated_Source\PSoC4/UART_UART.c **** 
 342:.\Generated_Source\PSoC4/UART_UART.c **** 
 343:.\Generated_Source\PSoC4/UART_UART.c **** /*******************************************************************************
 344:.\Generated_Source\PSoC4/UART_UART.c **** * Function Name: UART_UartStop
 345:.\Generated_Source\PSoC4/UART_UART.c **** ********************************************************************************
 346:.\Generated_Source\PSoC4/UART_UART.c **** *
 347:.\Generated_Source\PSoC4/UART_UART.c **** * Summary:
 348:.\Generated_Source\PSoC4/UART_UART.c **** *  Changes the HSIOM settings for the UART output pins (TX and/or RTS) to keep
 349:.\Generated_Source\PSoC4/UART_UART.c **** *  them inactive after the block is disabled. The output pins are controlled by
 350:.\Generated_Source\PSoC4/UART_UART.c **** *  the GPIO data register. Also, the function disables the skip start feature to
 351:.\Generated_Source\PSoC4/UART_UART.c **** *  not cause it to trigger after the component is enabled.
 352:.\Generated_Source\PSoC4/UART_UART.c **** *
 353:.\Generated_Source\PSoC4/UART_UART.c **** * Parameters:
 354:.\Generated_Source\PSoC4/UART_UART.c **** *  None
 355:.\Generated_Source\PSoC4/UART_UART.c **** *
 356:.\Generated_Source\PSoC4/UART_UART.c **** * Return:
 357:.\Generated_Source\PSoC4/UART_UART.c **** *  None
 358:.\Generated_Source\PSoC4/UART_UART.c **** *
 359:.\Generated_Source\PSoC4/UART_UART.c **** *******************************************************************************/
 360:.\Generated_Source\PSoC4/UART_UART.c **** void UART_UartStop(void)
 361:.\Generated_Source\PSoC4/UART_UART.c **** {
 362:.\Generated_Source\PSoC4/UART_UART.c **** #if(UART_SCB_MODE_UNCONFIG_CONST_CFG)
 363:.\Generated_Source\PSoC4/UART_UART.c ****     #if (UART_TX_SCL_MISO_PIN)
 364:.\Generated_Source\PSoC4/UART_UART.c ****         if (UART_CHECK_TX_SCL_MISO_PIN_USED)
 365:.\Generated_Source\PSoC4/UART_UART.c ****         {
 366:.\Generated_Source\PSoC4/UART_UART.c ****             /* Set GPIO to drive output pin */
 367:.\Generated_Source\PSoC4/UART_UART.c ****             UART_SET_HSIOM_SEL(UART_TX_SCL_MISO_HSIOM_REG, UART_TX_SCL_MISO_HSIOM_MASK,
 368:.\Generated_Source\PSoC4/UART_UART.c ****                                            UART_TX_SCL_MISO_HSIOM_POS, UART_HSIOM_GPIO_SEL);
 369:.\Generated_Source\PSoC4/UART_UART.c ****         }
 370:.\Generated_Source\PSoC4/UART_UART.c ****     #endif /* (UART_TX_SCL_MISO_PIN_PIN) */
 371:.\Generated_Source\PSoC4/UART_UART.c **** 
 372:.\Generated_Source\PSoC4/UART_UART.c ****     #if (UART_RTS_SS0_PIN)
 373:.\Generated_Source\PSoC4/UART_UART.c ****         if (UART_CHECK_RTS_SS0_PIN_USED)
 374:.\Generated_Source\PSoC4/UART_UART.c ****         {
ARM GAS  C:\Users\Helon\AppData\Local\Temp\ccnwpPdR.s 			page 8


 375:.\Generated_Source\PSoC4/UART_UART.c ****             /* Set output pin state after block is disabled */
 376:.\Generated_Source\PSoC4/UART_UART.c ****             UART_uart_rts_spi_ss0_Write(UART_GET_UART_RTS_INACTIVE);
 377:.\Generated_Source\PSoC4/UART_UART.c **** 
 378:.\Generated_Source\PSoC4/UART_UART.c ****             /* Set GPIO to drive output pin */
 379:.\Generated_Source\PSoC4/UART_UART.c ****             UART_SET_HSIOM_SEL(UART_RTS_SS0_HSIOM_REG, UART_RTS_SS0_HSIOM_MASK,
 380:.\Generated_Source\PSoC4/UART_UART.c ****                                            UART_RTS_SS0_HSIOM_POS, UART_HSIOM_GPIO_SEL);
 381:.\Generated_Source\PSoC4/UART_UART.c ****         }
 382:.\Generated_Source\PSoC4/UART_UART.c ****     #endif /* (UART_SS0_PIN) */
 383:.\Generated_Source\PSoC4/UART_UART.c **** 
 384:.\Generated_Source\PSoC4/UART_UART.c **** #else
 385:.\Generated_Source\PSoC4/UART_UART.c ****     #if (UART_UART_TX_PIN)
 386:.\Generated_Source\PSoC4/UART_UART.c ****         /* Set GPIO to drive output pin */
 387:.\Generated_Source\PSoC4/UART_UART.c ****         UART_SET_HSIOM_SEL(UART_TX_HSIOM_REG, UART_TX_HSIOM_MASK,
 388:.\Generated_Source\PSoC4/UART_UART.c ****                                        UART_TX_HSIOM_POS, UART_HSIOM_GPIO_SEL);
 389:.\Generated_Source\PSoC4/UART_UART.c ****     #endif /* (UART_UART_TX_PIN) */
 390:.\Generated_Source\PSoC4/UART_UART.c **** 
 391:.\Generated_Source\PSoC4/UART_UART.c ****     #if (UART_UART_RTS_PIN)
 392:.\Generated_Source\PSoC4/UART_UART.c ****         /* Set output pin state after block is disabled */
 393:.\Generated_Source\PSoC4/UART_UART.c ****         UART_rts_Write(UART_GET_UART_RTS_INACTIVE);
 394:.\Generated_Source\PSoC4/UART_UART.c **** 
 395:.\Generated_Source\PSoC4/UART_UART.c ****         /* Set GPIO to drive output pin */
 396:.\Generated_Source\PSoC4/UART_UART.c ****         UART_SET_HSIOM_SEL(UART_RTS_HSIOM_REG, UART_RTS_HSIOM_MASK,
 397:.\Generated_Source\PSoC4/UART_UART.c ****                                        UART_RTS_HSIOM_POS, UART_HSIOM_GPIO_SEL);
 398:.\Generated_Source\PSoC4/UART_UART.c ****     #endif /* (UART_UART_RTS_PIN) */
 399:.\Generated_Source\PSoC4/UART_UART.c **** 
 400:.\Generated_Source\PSoC4/UART_UART.c **** #endif /* (UART_SCB_MODE_UNCONFIG_CONST_CFG) */
 401:.\Generated_Source\PSoC4/UART_UART.c **** 
 402:.\Generated_Source\PSoC4/UART_UART.c **** #if (UART_UART_WAKE_ENABLE_CONST)
 403:.\Generated_Source\PSoC4/UART_UART.c ****     /* Disable skip start feature used for wakeup */
 404:.\Generated_Source\PSoC4/UART_UART.c ****     UART_UART_RX_CTRL_REG &= (uint32) ~UART_UART_RX_CTRL_SKIP_START;
 405:.\Generated_Source\PSoC4/UART_UART.c **** #endif /* (UART_UART_WAKE_ENABLE_CONST) */
 406:.\Generated_Source\PSoC4/UART_UART.c **** }
 407:.\Generated_Source\PSoC4/UART_UART.c **** 
 408:.\Generated_Source\PSoC4/UART_UART.c **** 
 409:.\Generated_Source\PSoC4/UART_UART.c **** /*******************************************************************************
 410:.\Generated_Source\PSoC4/UART_UART.c **** * Function Name: UART_UartSetRxAddress
 411:.\Generated_Source\PSoC4/UART_UART.c **** ********************************************************************************
 412:.\Generated_Source\PSoC4/UART_UART.c **** *
 413:.\Generated_Source\PSoC4/UART_UART.c **** * Summary:
 414:.\Generated_Source\PSoC4/UART_UART.c **** *  Sets the hardware detectable receiver address for the UART in the
 415:.\Generated_Source\PSoC4/UART_UART.c **** *  Multiprocessor mode.
 416:.\Generated_Source\PSoC4/UART_UART.c **** *
 417:.\Generated_Source\PSoC4/UART_UART.c **** * Parameters:
 418:.\Generated_Source\PSoC4/UART_UART.c **** *  address: Address for hardware address detection.
 419:.\Generated_Source\PSoC4/UART_UART.c **** *
 420:.\Generated_Source\PSoC4/UART_UART.c **** * Return:
 421:.\Generated_Source\PSoC4/UART_UART.c **** *  None
 422:.\Generated_Source\PSoC4/UART_UART.c **** *
 423:.\Generated_Source\PSoC4/UART_UART.c **** *******************************************************************************/
 424:.\Generated_Source\PSoC4/UART_UART.c **** void UART_UartSetRxAddress(uint32 address)
 425:.\Generated_Source\PSoC4/UART_UART.c **** {
 426:.\Generated_Source\PSoC4/UART_UART.c ****      uint32 matchReg;
 427:.\Generated_Source\PSoC4/UART_UART.c **** 
 428:.\Generated_Source\PSoC4/UART_UART.c ****     matchReg = UART_RX_MATCH_REG;
 429:.\Generated_Source\PSoC4/UART_UART.c **** 
 430:.\Generated_Source\PSoC4/UART_UART.c ****     matchReg &= ((uint32) ~UART_RX_MATCH_ADDR_MASK); /* Clear address bits */
 431:.\Generated_Source\PSoC4/UART_UART.c ****     matchReg |= ((uint32)  (address & UART_RX_MATCH_ADDR_MASK)); /* Set address  */
ARM GAS  C:\Users\Helon\AppData\Local\Temp\ccnwpPdR.s 			page 9


 432:.\Generated_Source\PSoC4/UART_UART.c **** 
 433:.\Generated_Source\PSoC4/UART_UART.c ****     UART_RX_MATCH_REG = matchReg;
 434:.\Generated_Source\PSoC4/UART_UART.c **** }
 435:.\Generated_Source\PSoC4/UART_UART.c **** 
 436:.\Generated_Source\PSoC4/UART_UART.c **** 
 437:.\Generated_Source\PSoC4/UART_UART.c **** /*******************************************************************************
 438:.\Generated_Source\PSoC4/UART_UART.c **** * Function Name: UART_UartSetRxAddressMask
 439:.\Generated_Source\PSoC4/UART_UART.c **** ********************************************************************************
 440:.\Generated_Source\PSoC4/UART_UART.c **** *
 441:.\Generated_Source\PSoC4/UART_UART.c **** * Summary:
 442:.\Generated_Source\PSoC4/UART_UART.c **** *  Sets the hardware address mask for the UART in the Multiprocessor mode.
 443:.\Generated_Source\PSoC4/UART_UART.c **** *
 444:.\Generated_Source\PSoC4/UART_UART.c **** * Parameters:
 445:.\Generated_Source\PSoC4/UART_UART.c **** *  addressMask: Address mask.
 446:.\Generated_Source\PSoC4/UART_UART.c **** *   0 - address bit does not care while comparison.
 447:.\Generated_Source\PSoC4/UART_UART.c **** *   1 - address bit is significant while comparison.
 448:.\Generated_Source\PSoC4/UART_UART.c **** *
 449:.\Generated_Source\PSoC4/UART_UART.c **** * Return:
 450:.\Generated_Source\PSoC4/UART_UART.c **** *  None
 451:.\Generated_Source\PSoC4/UART_UART.c **** *
 452:.\Generated_Source\PSoC4/UART_UART.c **** *******************************************************************************/
 453:.\Generated_Source\PSoC4/UART_UART.c **** void UART_UartSetRxAddressMask(uint32 addressMask)
 454:.\Generated_Source\PSoC4/UART_UART.c **** {
 455:.\Generated_Source\PSoC4/UART_UART.c ****     uint32 matchReg;
 456:.\Generated_Source\PSoC4/UART_UART.c **** 
 457:.\Generated_Source\PSoC4/UART_UART.c ****     matchReg = UART_RX_MATCH_REG;
 458:.\Generated_Source\PSoC4/UART_UART.c **** 
 459:.\Generated_Source\PSoC4/UART_UART.c ****     matchReg &= ((uint32) ~UART_RX_MATCH_MASK_MASK); /* Clear address mask bits */
 460:.\Generated_Source\PSoC4/UART_UART.c ****     matchReg |= ((uint32) (addressMask << UART_RX_MATCH_MASK_POS));
 461:.\Generated_Source\PSoC4/UART_UART.c **** 
 462:.\Generated_Source\PSoC4/UART_UART.c ****     UART_RX_MATCH_REG = matchReg;
 463:.\Generated_Source\PSoC4/UART_UART.c **** }
 464:.\Generated_Source\PSoC4/UART_UART.c **** 
 465:.\Generated_Source\PSoC4/UART_UART.c **** 
 466:.\Generated_Source\PSoC4/UART_UART.c **** #if(UART_UART_RX_DIRECTION)
 467:.\Generated_Source\PSoC4/UART_UART.c ****     /*******************************************************************************
 468:.\Generated_Source\PSoC4/UART_UART.c ****     * Function Name: UART_UartGetChar
 469:.\Generated_Source\PSoC4/UART_UART.c ****     ********************************************************************************
 470:.\Generated_Source\PSoC4/UART_UART.c ****     *
 471:.\Generated_Source\PSoC4/UART_UART.c ****     * Summary:
 472:.\Generated_Source\PSoC4/UART_UART.c ****     *  Retrieves the next data element from the receive buffer.
 473:.\Generated_Source\PSoC4/UART_UART.c ****     *  This function is designed for ASCII characters and returns a char
 474:.\Generated_Source\PSoC4/UART_UART.c ****     *  where 1 to 255 are valid characters and 0 indicates an error occurred or
 475:.\Generated_Source\PSoC4/UART_UART.c ****     *  no data present.
 476:.\Generated_Source\PSoC4/UART_UART.c ****     *  - The RX software buffer is disabled: returns the data element
 477:.\Generated_Source\PSoC4/UART_UART.c ****     *    retrieved from the RX FIFO.
 478:.\Generated_Source\PSoC4/UART_UART.c ****     *    Undefined data will be returned if the RX FIFO is empty.
 479:.\Generated_Source\PSoC4/UART_UART.c ****     *  - The RX software buffer is enabled: returns the data element from
 480:.\Generated_Source\PSoC4/UART_UART.c ****     *    the software receive buffer.
 481:.\Generated_Source\PSoC4/UART_UART.c ****     *
 482:.\Generated_Source\PSoC4/UART_UART.c ****     * Parameters:
 483:.\Generated_Source\PSoC4/UART_UART.c ****     *  None
 484:.\Generated_Source\PSoC4/UART_UART.c ****     *
 485:.\Generated_Source\PSoC4/UART_UART.c ****     * Return:
 486:.\Generated_Source\PSoC4/UART_UART.c ****     *  The next data element from the receive buffer.
 487:.\Generated_Source\PSoC4/UART_UART.c ****     *  ASCII character values from 1 to 255 are valid.
 488:.\Generated_Source\PSoC4/UART_UART.c ****     *  A returned zero signifies an error condition or no data available.
ARM GAS  C:\Users\Helon\AppData\Local\Temp\ccnwpPdR.s 			page 10


 489:.\Generated_Source\PSoC4/UART_UART.c ****     *
 490:.\Generated_Source\PSoC4/UART_UART.c ****     * Side Effects:
 491:.\Generated_Source\PSoC4/UART_UART.c ****     *  The errors bits may not correspond with reading characters due to RX FIFO
 492:.\Generated_Source\PSoC4/UART_UART.c ****     *  and software buffer usage.
 493:.\Generated_Source\PSoC4/UART_UART.c ****     *  RX software buffer is enabled: The internal software buffer overflow
 494:.\Generated_Source\PSoC4/UART_UART.c ****     *  does not treat as an error condition.
 495:.\Generated_Source\PSoC4/UART_UART.c ****     *  Check SCB_rxBufferOverflow to capture that error condition.
 496:.\Generated_Source\PSoC4/UART_UART.c ****     *
 497:.\Generated_Source\PSoC4/UART_UART.c ****     *******************************************************************************/
 498:.\Generated_Source\PSoC4/UART_UART.c ****     uint32 UART_UartGetChar(void)
 499:.\Generated_Source\PSoC4/UART_UART.c ****     {
 500:.\Generated_Source\PSoC4/UART_UART.c ****         uint32 rxData = 0u;
 501:.\Generated_Source\PSoC4/UART_UART.c **** 
 502:.\Generated_Source\PSoC4/UART_UART.c ****         /* Reads data only if there is data to read */
 503:.\Generated_Source\PSoC4/UART_UART.c ****         if (0u != UART_SpiUartGetRxBufferSize())
 504:.\Generated_Source\PSoC4/UART_UART.c ****         {
 505:.\Generated_Source\PSoC4/UART_UART.c ****             rxData = UART_SpiUartReadRxData();
 506:.\Generated_Source\PSoC4/UART_UART.c ****         }
 507:.\Generated_Source\PSoC4/UART_UART.c **** 
 508:.\Generated_Source\PSoC4/UART_UART.c ****         if (UART_CHECK_INTR_RX(UART_INTR_RX_ERR))
 509:.\Generated_Source\PSoC4/UART_UART.c ****         {
 510:.\Generated_Source\PSoC4/UART_UART.c ****             rxData = 0u; /* Error occurred: returns zero */
 511:.\Generated_Source\PSoC4/UART_UART.c ****             UART_ClearRxInterruptSource(UART_INTR_RX_ERR);
 512:.\Generated_Source\PSoC4/UART_UART.c ****         }
 513:.\Generated_Source\PSoC4/UART_UART.c **** 
 514:.\Generated_Source\PSoC4/UART_UART.c ****         return (rxData);
 515:.\Generated_Source\PSoC4/UART_UART.c ****     }
 516:.\Generated_Source\PSoC4/UART_UART.c **** 
 517:.\Generated_Source\PSoC4/UART_UART.c **** 
 518:.\Generated_Source\PSoC4/UART_UART.c ****     /*******************************************************************************
 519:.\Generated_Source\PSoC4/UART_UART.c ****     * Function Name: UART_UartGetByte
 520:.\Generated_Source\PSoC4/UART_UART.c ****     ********************************************************************************
 521:.\Generated_Source\PSoC4/UART_UART.c ****     *
 522:.\Generated_Source\PSoC4/UART_UART.c ****     * Summary:
 523:.\Generated_Source\PSoC4/UART_UART.c ****     *  Retrieves the next data element from the receive buffer, returns the
 524:.\Generated_Source\PSoC4/UART_UART.c ****     *  received byte and error condition.
 525:.\Generated_Source\PSoC4/UART_UART.c ****     *   - The RX software buffer is disabled: returns the data element retrieved
 526:.\Generated_Source\PSoC4/UART_UART.c ****     *     from the RX FIFO. Undefined data will be returned if the RX FIFO is
 527:.\Generated_Source\PSoC4/UART_UART.c ****     *     empty.
 528:.\Generated_Source\PSoC4/UART_UART.c ****     *   - The RX software buffer is enabled: returns data element from the
 529:.\Generated_Source\PSoC4/UART_UART.c ****     *     software receive buffer.
 530:.\Generated_Source\PSoC4/UART_UART.c ****     *
 531:.\Generated_Source\PSoC4/UART_UART.c ****     * Parameters:
 532:.\Generated_Source\PSoC4/UART_UART.c ****     *  None
 533:.\Generated_Source\PSoC4/UART_UART.c ****     *
 534:.\Generated_Source\PSoC4/UART_UART.c ****     * Return:
 535:.\Generated_Source\PSoC4/UART_UART.c ****     *  Bits 7-0 contain the next data element from the receive buffer and
 536:.\Generated_Source\PSoC4/UART_UART.c ****     *  other bits contain the error condition.
 537:.\Generated_Source\PSoC4/UART_UART.c ****     *
 538:.\Generated_Source\PSoC4/UART_UART.c ****     * Side Effects:
 539:.\Generated_Source\PSoC4/UART_UART.c ****     *  The errors bits may not correspond with reading characters due to RX FIFO
 540:.\Generated_Source\PSoC4/UART_UART.c ****     *  and software buffer usage.
 541:.\Generated_Source\PSoC4/UART_UART.c ****     *  RX software buffer is disabled: The internal software buffer overflow
 542:.\Generated_Source\PSoC4/UART_UART.c ****     *  is not returned as status by this function.
 543:.\Generated_Source\PSoC4/UART_UART.c ****     *  Check SCB_rxBufferOverflow to capture that error condition.
 544:.\Generated_Source\PSoC4/UART_UART.c ****     *
 545:.\Generated_Source\PSoC4/UART_UART.c ****     *******************************************************************************/
ARM GAS  C:\Users\Helon\AppData\Local\Temp\ccnwpPdR.s 			page 11


 546:.\Generated_Source\PSoC4/UART_UART.c ****     uint32 UART_UartGetByte(void)
 547:.\Generated_Source\PSoC4/UART_UART.c ****     {
 548:.\Generated_Source\PSoC4/UART_UART.c ****         uint32 rxData;
 549:.\Generated_Source\PSoC4/UART_UART.c ****         uint32 tmpStatus;
 550:.\Generated_Source\PSoC4/UART_UART.c **** 
 551:.\Generated_Source\PSoC4/UART_UART.c ****         #if (UART_CHECK_RX_SW_BUFFER)
 552:.\Generated_Source\PSoC4/UART_UART.c ****         {
 553:.\Generated_Source\PSoC4/UART_UART.c ****             UART_DisableInt();
 554:.\Generated_Source\PSoC4/UART_UART.c ****         }
 555:.\Generated_Source\PSoC4/UART_UART.c ****         #endif
 556:.\Generated_Source\PSoC4/UART_UART.c **** 
 557:.\Generated_Source\PSoC4/UART_UART.c ****         if (0u != UART_SpiUartGetRxBufferSize())
 558:.\Generated_Source\PSoC4/UART_UART.c ****         {
 559:.\Generated_Source\PSoC4/UART_UART.c ****             /* Enables interrupt to receive more bytes: at least one byte is in
 560:.\Generated_Source\PSoC4/UART_UART.c ****             * buffer.
 561:.\Generated_Source\PSoC4/UART_UART.c ****             */
 562:.\Generated_Source\PSoC4/UART_UART.c ****             #if (UART_CHECK_RX_SW_BUFFER)
 563:.\Generated_Source\PSoC4/UART_UART.c ****             {            
 564:.\Generated_Source\PSoC4/UART_UART.c ****                 UART_EnableInt();
 565:.\Generated_Source\PSoC4/UART_UART.c ****             }
 566:.\Generated_Source\PSoC4/UART_UART.c ****             #endif
 567:.\Generated_Source\PSoC4/UART_UART.c **** 
 568:.\Generated_Source\PSoC4/UART_UART.c ****             /* Get received byte */
 569:.\Generated_Source\PSoC4/UART_UART.c ****             rxData = UART_SpiUartReadRxData();
 570:.\Generated_Source\PSoC4/UART_UART.c ****         }
 571:.\Generated_Source\PSoC4/UART_UART.c ****         else
 572:.\Generated_Source\PSoC4/UART_UART.c ****         {
 573:.\Generated_Source\PSoC4/UART_UART.c ****             /* Reads a byte directly from RX FIFO: underflow is raised in the case
 574:.\Generated_Source\PSoC4/UART_UART.c ****             * of empty. Otherwise the first received byte will be read.
 575:.\Generated_Source\PSoC4/UART_UART.c ****             */
 576:.\Generated_Source\PSoC4/UART_UART.c ****             rxData = UART_RX_FIFO_RD_REG;
 577:.\Generated_Source\PSoC4/UART_UART.c **** 
 578:.\Generated_Source\PSoC4/UART_UART.c ****             /* Enables interrupt to receive more bytes.
 579:.\Generated_Source\PSoC4/UART_UART.c ****             * The RX_NOT_EMPTY interrupt is cleared by the interrupt routine
 580:.\Generated_Source\PSoC4/UART_UART.c ****             * in case the byte was received and read by code above.
 581:.\Generated_Source\PSoC4/UART_UART.c ****             */
 582:.\Generated_Source\PSoC4/UART_UART.c ****             #if (UART_CHECK_RX_SW_BUFFER)
 583:.\Generated_Source\PSoC4/UART_UART.c ****             {
 584:.\Generated_Source\PSoC4/UART_UART.c ****                 UART_EnableInt();
 585:.\Generated_Source\PSoC4/UART_UART.c ****             }
 586:.\Generated_Source\PSoC4/UART_UART.c ****             #endif
 587:.\Generated_Source\PSoC4/UART_UART.c ****         }
 588:.\Generated_Source\PSoC4/UART_UART.c **** 
 589:.\Generated_Source\PSoC4/UART_UART.c ****         /* Get and clear RX error mask */
 590:.\Generated_Source\PSoC4/UART_UART.c ****         tmpStatus = (UART_GetRxInterruptSource() & UART_INTR_RX_ERR);
 591:.\Generated_Source\PSoC4/UART_UART.c ****         UART_ClearRxInterruptSource(UART_INTR_RX_ERR);
 592:.\Generated_Source\PSoC4/UART_UART.c **** 
 593:.\Generated_Source\PSoC4/UART_UART.c ****         /* Puts together data and error status:
 594:.\Generated_Source\PSoC4/UART_UART.c ****         * MP mode and accept address: 9th bit is set to notify mark.
 595:.\Generated_Source\PSoC4/UART_UART.c ****         */
 596:.\Generated_Source\PSoC4/UART_UART.c ****         rxData |= ((uint32) (tmpStatus << 8u));
 597:.\Generated_Source\PSoC4/UART_UART.c **** 
 598:.\Generated_Source\PSoC4/UART_UART.c ****         return (rxData);
 599:.\Generated_Source\PSoC4/UART_UART.c ****     }
 600:.\Generated_Source\PSoC4/UART_UART.c **** 
 601:.\Generated_Source\PSoC4/UART_UART.c **** 
 602:.\Generated_Source\PSoC4/UART_UART.c ****     #if !(UART_CY_SCBIP_V0 || UART_CY_SCBIP_V1)
ARM GAS  C:\Users\Helon\AppData\Local\Temp\ccnwpPdR.s 			page 12


 603:.\Generated_Source\PSoC4/UART_UART.c ****         /*******************************************************************************
 604:.\Generated_Source\PSoC4/UART_UART.c ****         * Function Name: UART_UartSetRtsPolarity
 605:.\Generated_Source\PSoC4/UART_UART.c ****         ********************************************************************************
 606:.\Generated_Source\PSoC4/UART_UART.c ****         *
 607:.\Generated_Source\PSoC4/UART_UART.c ****         * Summary:
 608:.\Generated_Source\PSoC4/UART_UART.c ****         *  Sets active polarity of RTS output signal.
 609:.\Generated_Source\PSoC4/UART_UART.c ****         *
 610:.\Generated_Source\PSoC4/UART_UART.c ****         * Parameters:
 611:.\Generated_Source\PSoC4/UART_UART.c ****         *  polarity: Active polarity of RTS output signal.
 612:.\Generated_Source\PSoC4/UART_UART.c ****         *   UART_UART_RTS_ACTIVE_LOW  - RTS signal is active low.
 613:.\Generated_Source\PSoC4/UART_UART.c ****         *   UART_UART_RTS_ACTIVE_HIGH - RTS signal is active high.
 614:.\Generated_Source\PSoC4/UART_UART.c ****         *
 615:.\Generated_Source\PSoC4/UART_UART.c ****         * Return:
 616:.\Generated_Source\PSoC4/UART_UART.c ****         *  None
 617:.\Generated_Source\PSoC4/UART_UART.c ****         *
 618:.\Generated_Source\PSoC4/UART_UART.c ****         *******************************************************************************/
 619:.\Generated_Source\PSoC4/UART_UART.c ****         void UART_UartSetRtsPolarity(uint32 polarity)
 620:.\Generated_Source\PSoC4/UART_UART.c ****         {
 621:.\Generated_Source\PSoC4/UART_UART.c ****             if(0u != polarity)
 622:.\Generated_Source\PSoC4/UART_UART.c ****             {
 623:.\Generated_Source\PSoC4/UART_UART.c ****                 UART_UART_FLOW_CTRL_REG |= (uint32)  UART_UART_FLOW_CTRL_RTS_POLARITY;
 624:.\Generated_Source\PSoC4/UART_UART.c ****             }
 625:.\Generated_Source\PSoC4/UART_UART.c ****             else
 626:.\Generated_Source\PSoC4/UART_UART.c ****             {
 627:.\Generated_Source\PSoC4/UART_UART.c ****                 UART_UART_FLOW_CTRL_REG &= (uint32) ~UART_UART_FLOW_CTRL_RTS_POLARITY;
 628:.\Generated_Source\PSoC4/UART_UART.c ****             }
 629:.\Generated_Source\PSoC4/UART_UART.c ****         }
 630:.\Generated_Source\PSoC4/UART_UART.c **** 
 631:.\Generated_Source\PSoC4/UART_UART.c **** 
 632:.\Generated_Source\PSoC4/UART_UART.c ****         /*******************************************************************************
 633:.\Generated_Source\PSoC4/UART_UART.c ****         * Function Name: UART_UartSetRtsFifoLevel
 634:.\Generated_Source\PSoC4/UART_UART.c ****         ********************************************************************************
 635:.\Generated_Source\PSoC4/UART_UART.c ****         *
 636:.\Generated_Source\PSoC4/UART_UART.c ****         * Summary:
 637:.\Generated_Source\PSoC4/UART_UART.c ****         *  Sets level in the RX FIFO for RTS signal activation.
 638:.\Generated_Source\PSoC4/UART_UART.c ****         *  While the RX FIFO has fewer entries than the RX FIFO level the RTS signal
 639:.\Generated_Source\PSoC4/UART_UART.c ****         *  remains active, otherwise the RTS signal becomes inactive.
 640:.\Generated_Source\PSoC4/UART_UART.c ****         *
 641:.\Generated_Source\PSoC4/UART_UART.c ****         * Parameters:
 642:.\Generated_Source\PSoC4/UART_UART.c ****         *  level: Level in the RX FIFO for RTS signal activation.
 643:.\Generated_Source\PSoC4/UART_UART.c ****         *         The range of valid level values is between 0 and RX FIFO depth - 1.
 644:.\Generated_Source\PSoC4/UART_UART.c ****         *         Setting level value to 0 disables RTS signal activation.
 645:.\Generated_Source\PSoC4/UART_UART.c ****         *
 646:.\Generated_Source\PSoC4/UART_UART.c ****         * Return:
 647:.\Generated_Source\PSoC4/UART_UART.c ****         *  None
 648:.\Generated_Source\PSoC4/UART_UART.c ****         *
 649:.\Generated_Source\PSoC4/UART_UART.c ****         *******************************************************************************/
 650:.\Generated_Source\PSoC4/UART_UART.c ****         void UART_UartSetRtsFifoLevel(uint32 level)
 651:.\Generated_Source\PSoC4/UART_UART.c ****         {
 652:.\Generated_Source\PSoC4/UART_UART.c ****             uint32 uartFlowCtrl;
 653:.\Generated_Source\PSoC4/UART_UART.c **** 
 654:.\Generated_Source\PSoC4/UART_UART.c ****             uartFlowCtrl = UART_UART_FLOW_CTRL_REG;
 655:.\Generated_Source\PSoC4/UART_UART.c **** 
 656:.\Generated_Source\PSoC4/UART_UART.c ****             uartFlowCtrl &= ((uint32) ~UART_UART_FLOW_CTRL_TRIGGER_LEVEL_MASK); /* Clear level mask
 657:.\Generated_Source\PSoC4/UART_UART.c ****             uartFlowCtrl |= ((uint32) (UART_UART_FLOW_CTRL_TRIGGER_LEVEL_MASK & level));
 658:.\Generated_Source\PSoC4/UART_UART.c **** 
 659:.\Generated_Source\PSoC4/UART_UART.c ****             UART_UART_FLOW_CTRL_REG = uartFlowCtrl;
ARM GAS  C:\Users\Helon\AppData\Local\Temp\ccnwpPdR.s 			page 13


 660:.\Generated_Source\PSoC4/UART_UART.c ****         }
 661:.\Generated_Source\PSoC4/UART_UART.c ****     #endif /* !(UART_CY_SCBIP_V0 || UART_CY_SCBIP_V1) */
 662:.\Generated_Source\PSoC4/UART_UART.c **** 
 663:.\Generated_Source\PSoC4/UART_UART.c **** #endif /* (UART_UART_RX_DIRECTION) */
 664:.\Generated_Source\PSoC4/UART_UART.c **** 
 665:.\Generated_Source\PSoC4/UART_UART.c **** 
 666:.\Generated_Source\PSoC4/UART_UART.c **** #if(UART_UART_TX_DIRECTION)
 667:.\Generated_Source\PSoC4/UART_UART.c ****     /*******************************************************************************
 668:.\Generated_Source\PSoC4/UART_UART.c ****     * Function Name: UART_UartPutString
 669:.\Generated_Source\PSoC4/UART_UART.c ****     ********************************************************************************
 670:.\Generated_Source\PSoC4/UART_UART.c ****     *
 671:.\Generated_Source\PSoC4/UART_UART.c ****     * Summary:
 672:.\Generated_Source\PSoC4/UART_UART.c ****     *  Places a NULL terminated string in the transmit buffer to be sent at the
 673:.\Generated_Source\PSoC4/UART_UART.c ****     *  next available bus time.
 674:.\Generated_Source\PSoC4/UART_UART.c ****     *  This function is blocking and waits until there is space available to put
 675:.\Generated_Source\PSoC4/UART_UART.c ****     *  all the requested data into the  transmit buffer.
 676:.\Generated_Source\PSoC4/UART_UART.c ****     *
 677:.\Generated_Source\PSoC4/UART_UART.c ****     * Parameters:
 678:.\Generated_Source\PSoC4/UART_UART.c ****     *  string: pointer to the null terminated string array to be placed in the
 679:.\Generated_Source\PSoC4/UART_UART.c ****     *          transmit buffer.
 680:.\Generated_Source\PSoC4/UART_UART.c ****     *
 681:.\Generated_Source\PSoC4/UART_UART.c ****     * Return:
 682:.\Generated_Source\PSoC4/UART_UART.c ****     *  None
 683:.\Generated_Source\PSoC4/UART_UART.c ****     *
 684:.\Generated_Source\PSoC4/UART_UART.c ****     *******************************************************************************/
 685:.\Generated_Source\PSoC4/UART_UART.c ****     void UART_UartPutString(const char8 string[])
 686:.\Generated_Source\PSoC4/UART_UART.c ****     {
 687:.\Generated_Source\PSoC4/UART_UART.c ****         uint32 bufIndex;
 688:.\Generated_Source\PSoC4/UART_UART.c **** 
 689:.\Generated_Source\PSoC4/UART_UART.c ****         bufIndex = 0u;
 690:.\Generated_Source\PSoC4/UART_UART.c **** 
 691:.\Generated_Source\PSoC4/UART_UART.c ****         /* Blocks the control flow until all data has been sent */
 692:.\Generated_Source\PSoC4/UART_UART.c ****         while(string[bufIndex] != ((char8) 0))
 693:.\Generated_Source\PSoC4/UART_UART.c ****         {
 694:.\Generated_Source\PSoC4/UART_UART.c ****             UART_UartPutChar((uint32) string[bufIndex]);
 695:.\Generated_Source\PSoC4/UART_UART.c ****             bufIndex++;
 696:.\Generated_Source\PSoC4/UART_UART.c ****         }
 697:.\Generated_Source\PSoC4/UART_UART.c ****     }
 698:.\Generated_Source\PSoC4/UART_UART.c **** 
 699:.\Generated_Source\PSoC4/UART_UART.c **** 
 700:.\Generated_Source\PSoC4/UART_UART.c ****     /*******************************************************************************
 701:.\Generated_Source\PSoC4/UART_UART.c ****     * Function Name: UART_UartPutCRLF
 702:.\Generated_Source\PSoC4/UART_UART.c ****     ********************************************************************************
 703:.\Generated_Source\PSoC4/UART_UART.c ****     *
 704:.\Generated_Source\PSoC4/UART_UART.c ****     * Summary:
 705:.\Generated_Source\PSoC4/UART_UART.c ****     *  Places a byte of data followed by a carriage return (0x0D) and
 706:.\Generated_Source\PSoC4/UART_UART.c ****     *  line feed (0x0A) into the transmit buffer.
 707:.\Generated_Source\PSoC4/UART_UART.c ****     *  This function is blocking and waits until there is space available to put
 708:.\Generated_Source\PSoC4/UART_UART.c ****     *  all the requested data into the  transmit buffer.
 709:.\Generated_Source\PSoC4/UART_UART.c ****     *
 710:.\Generated_Source\PSoC4/UART_UART.c ****     * Parameters:
 711:.\Generated_Source\PSoC4/UART_UART.c ****     *  txDataByte : the data to be transmitted.
 712:.\Generated_Source\PSoC4/UART_UART.c ****     *
 713:.\Generated_Source\PSoC4/UART_UART.c ****     * Return:
 714:.\Generated_Source\PSoC4/UART_UART.c ****     *  None
 715:.\Generated_Source\PSoC4/UART_UART.c ****     *
 716:.\Generated_Source\PSoC4/UART_UART.c ****     *******************************************************************************/
ARM GAS  C:\Users\Helon\AppData\Local\Temp\ccnwpPdR.s 			page 14


 717:.\Generated_Source\PSoC4/UART_UART.c ****     void UART_UartPutCRLF(uint32 txDataByte)
 718:.\Generated_Source\PSoC4/UART_UART.c ****     {
 719:.\Generated_Source\PSoC4/UART_UART.c ****         UART_UartPutChar(txDataByte);  /* Blocks control flow until all data has been sent */
 720:.\Generated_Source\PSoC4/UART_UART.c ****         UART_UartPutChar(0x0Du);       /* Blocks control flow until all data has been sent */
 721:.\Generated_Source\PSoC4/UART_UART.c ****         UART_UartPutChar(0x0Au);       /* Blocks control flow until all data has been sent */
 722:.\Generated_Source\PSoC4/UART_UART.c ****     }
 723:.\Generated_Source\PSoC4/UART_UART.c **** 
 724:.\Generated_Source\PSoC4/UART_UART.c **** 
 725:.\Generated_Source\PSoC4/UART_UART.c ****     #if !(UART_CY_SCBIP_V0 || UART_CY_SCBIP_V1)
 726:.\Generated_Source\PSoC4/UART_UART.c ****         /*******************************************************************************
 727:.\Generated_Source\PSoC4/UART_UART.c ****         * Function Name: UARTSCB_UartEnableCts
 728:.\Generated_Source\PSoC4/UART_UART.c ****         ********************************************************************************
 729:.\Generated_Source\PSoC4/UART_UART.c ****         *
 730:.\Generated_Source\PSoC4/UART_UART.c ****         * Summary:
 731:.\Generated_Source\PSoC4/UART_UART.c ****         *  Enables usage of CTS input signal by the UART transmitter.
 732:.\Generated_Source\PSoC4/UART_UART.c ****         *
 733:.\Generated_Source\PSoC4/UART_UART.c ****         * Parameters:
 734:.\Generated_Source\PSoC4/UART_UART.c ****         *  None
 735:.\Generated_Source\PSoC4/UART_UART.c ****         *
 736:.\Generated_Source\PSoC4/UART_UART.c ****         * Return:
 737:.\Generated_Source\PSoC4/UART_UART.c ****         *  None
 738:.\Generated_Source\PSoC4/UART_UART.c ****         *
 739:.\Generated_Source\PSoC4/UART_UART.c ****         *******************************************************************************/
 740:.\Generated_Source\PSoC4/UART_UART.c ****         void UART_UartEnableCts(void)
 741:.\Generated_Source\PSoC4/UART_UART.c ****         {
 742:.\Generated_Source\PSoC4/UART_UART.c ****             UART_UART_FLOW_CTRL_REG |= (uint32)  UART_UART_FLOW_CTRL_CTS_ENABLE;
 743:.\Generated_Source\PSoC4/UART_UART.c ****         }
 744:.\Generated_Source\PSoC4/UART_UART.c **** 
 745:.\Generated_Source\PSoC4/UART_UART.c **** 
 746:.\Generated_Source\PSoC4/UART_UART.c ****         /*******************************************************************************
 747:.\Generated_Source\PSoC4/UART_UART.c ****         * Function Name: UART_UartDisableCts
 748:.\Generated_Source\PSoC4/UART_UART.c ****         ********************************************************************************
 749:.\Generated_Source\PSoC4/UART_UART.c ****         *
 750:.\Generated_Source\PSoC4/UART_UART.c ****         * Summary:
 751:.\Generated_Source\PSoC4/UART_UART.c ****         *  Disables usage of CTS input signal by the UART transmitter.
 752:.\Generated_Source\PSoC4/UART_UART.c ****         *
 753:.\Generated_Source\PSoC4/UART_UART.c ****         * Parameters:
 754:.\Generated_Source\PSoC4/UART_UART.c ****         *  None
 755:.\Generated_Source\PSoC4/UART_UART.c ****         *
 756:.\Generated_Source\PSoC4/UART_UART.c ****         * Return:
 757:.\Generated_Source\PSoC4/UART_UART.c ****         *  None
 758:.\Generated_Source\PSoC4/UART_UART.c ****         *
 759:.\Generated_Source\PSoC4/UART_UART.c ****         *******************************************************************************/
 760:.\Generated_Source\PSoC4/UART_UART.c ****         void UART_UartDisableCts(void)
 761:.\Generated_Source\PSoC4/UART_UART.c ****         {
 762:.\Generated_Source\PSoC4/UART_UART.c ****             UART_UART_FLOW_CTRL_REG &= (uint32) ~UART_UART_FLOW_CTRL_CTS_ENABLE;
 763:.\Generated_Source\PSoC4/UART_UART.c ****         }
 764:.\Generated_Source\PSoC4/UART_UART.c **** 
 765:.\Generated_Source\PSoC4/UART_UART.c **** 
 766:.\Generated_Source\PSoC4/UART_UART.c ****         /*******************************************************************************
 767:.\Generated_Source\PSoC4/UART_UART.c ****         * Function Name: UART_UartSetCtsPolarity
 768:.\Generated_Source\PSoC4/UART_UART.c ****         ********************************************************************************
 769:.\Generated_Source\PSoC4/UART_UART.c ****         *
 770:.\Generated_Source\PSoC4/UART_UART.c ****         * Summary:
 771:.\Generated_Source\PSoC4/UART_UART.c ****         *  Sets active polarity of CTS input signal.
 772:.\Generated_Source\PSoC4/UART_UART.c ****         *
 773:.\Generated_Source\PSoC4/UART_UART.c ****         * Parameters:
ARM GAS  C:\Users\Helon\AppData\Local\Temp\ccnwpPdR.s 			page 15


 774:.\Generated_Source\PSoC4/UART_UART.c ****         *  polarity: Active polarity of CTS output signal.
 775:.\Generated_Source\PSoC4/UART_UART.c ****         *   UART_UART_CTS_ACTIVE_LOW  - CTS signal is active low.
 776:.\Generated_Source\PSoC4/UART_UART.c ****         *   UART_UART_CTS_ACTIVE_HIGH - CTS signal is active high.
 777:.\Generated_Source\PSoC4/UART_UART.c ****         *
 778:.\Generated_Source\PSoC4/UART_UART.c ****         * Return:
 779:.\Generated_Source\PSoC4/UART_UART.c ****         *  None
 780:.\Generated_Source\PSoC4/UART_UART.c ****         *
 781:.\Generated_Source\PSoC4/UART_UART.c ****         *******************************************************************************/
 782:.\Generated_Source\PSoC4/UART_UART.c ****         void UART_UartSetCtsPolarity(uint32 polarity)
 783:.\Generated_Source\PSoC4/UART_UART.c ****         {
 784:.\Generated_Source\PSoC4/UART_UART.c ****             if (0u != polarity)
 785:.\Generated_Source\PSoC4/UART_UART.c ****             {
 786:.\Generated_Source\PSoC4/UART_UART.c ****                 UART_UART_FLOW_CTRL_REG |= (uint32)  UART_UART_FLOW_CTRL_CTS_POLARITY;
 787:.\Generated_Source\PSoC4/UART_UART.c ****             }
 788:.\Generated_Source\PSoC4/UART_UART.c ****             else
 789:.\Generated_Source\PSoC4/UART_UART.c ****             {
 790:.\Generated_Source\PSoC4/UART_UART.c ****                 UART_UART_FLOW_CTRL_REG &= (uint32) ~UART_UART_FLOW_CTRL_CTS_POLARITY;
 791:.\Generated_Source\PSoC4/UART_UART.c ****             }
 792:.\Generated_Source\PSoC4/UART_UART.c ****         }
 793:.\Generated_Source\PSoC4/UART_UART.c ****     #endif /* !(UART_CY_SCBIP_V0 || UART_CY_SCBIP_V1) */
 794:.\Generated_Source\PSoC4/UART_UART.c **** 
 795:.\Generated_Source\PSoC4/UART_UART.c **** #endif /* (UART_UART_TX_DIRECTION) */
 796:.\Generated_Source\PSoC4/UART_UART.c **** 
 797:.\Generated_Source\PSoC4/UART_UART.c **** 
 798:.\Generated_Source\PSoC4/UART_UART.c **** #if(UART_UART_WAKE_ENABLE_CONST)
 799:.\Generated_Source\PSoC4/UART_UART.c ****     /*******************************************************************************
 800:.\Generated_Source\PSoC4/UART_UART.c ****     * Function Name: UART_UartSaveConfig
 801:.\Generated_Source\PSoC4/UART_UART.c ****     ********************************************************************************
 802:.\Generated_Source\PSoC4/UART_UART.c ****     *
 803:.\Generated_Source\PSoC4/UART_UART.c ****     * Summary:
 804:.\Generated_Source\PSoC4/UART_UART.c ****     *  Clears and enables interrupt on a falling edge of the Rx input. The GPIO
 805:.\Generated_Source\PSoC4/UART_UART.c ****     *  event wakes up the device and SKIP_START feature allows the UART continue
 806:.\Generated_Source\PSoC4/UART_UART.c ****     *  receiving data bytes properly. The GPIO interrupt does not track in the
 807:.\Generated_Source\PSoC4/UART_UART.c ****     *  active mode therefore requires to be cleared by this API.
 808:.\Generated_Source\PSoC4/UART_UART.c ****     *
 809:.\Generated_Source\PSoC4/UART_UART.c ****     * Parameters:
 810:.\Generated_Source\PSoC4/UART_UART.c ****     *  None
 811:.\Generated_Source\PSoC4/UART_UART.c ****     *
 812:.\Generated_Source\PSoC4/UART_UART.c ****     * Return:
 813:.\Generated_Source\PSoC4/UART_UART.c ****     *  None
 814:.\Generated_Source\PSoC4/UART_UART.c ****     *
 815:.\Generated_Source\PSoC4/UART_UART.c ****     *******************************************************************************/
 816:.\Generated_Source\PSoC4/UART_UART.c ****     void UART_UartSaveConfig(void)
 817:.\Generated_Source\PSoC4/UART_UART.c ****     {
 818:.\Generated_Source\PSoC4/UART_UART.c ****         /* Clear interrupt activity:
 819:.\Generated_Source\PSoC4/UART_UART.c ****         *  - set skip start and disable RX. At GPIO wakeup RX will be enabled.
 820:.\Generated_Source\PSoC4/UART_UART.c ****         *  - clear rx_wake interrupt source as it triggers during normal operation.
 821:.\Generated_Source\PSoC4/UART_UART.c ****         *  - clear wake interrupt pending state as it becomes pending in active mode.
 822:.\Generated_Source\PSoC4/UART_UART.c ****         */
 823:.\Generated_Source\PSoC4/UART_UART.c **** 
 824:.\Generated_Source\PSoC4/UART_UART.c ****         UART_UART_RX_CTRL_REG |= UART_UART_RX_CTRL_SKIP_START;
 825:.\Generated_Source\PSoC4/UART_UART.c **** 
 826:.\Generated_Source\PSoC4/UART_UART.c ****     #if(UART_SCB_MODE_UNCONFIG_CONST_CFG)
 827:.\Generated_Source\PSoC4/UART_UART.c ****         #if(UART_MOSI_SCL_RX_WAKE_PIN)
 828:.\Generated_Source\PSoC4/UART_UART.c ****             (void) UART_uart_rx_wake_i2c_sda_spi_mosi_ClearInterrupt();
 829:.\Generated_Source\PSoC4/UART_UART.c ****         #endif /* (UART_MOSI_SCL_RX_WAKE_PIN) */
 830:.\Generated_Source\PSoC4/UART_UART.c ****     #else
ARM GAS  C:\Users\Helon\AppData\Local\Temp\ccnwpPdR.s 			page 16


 831:.\Generated_Source\PSoC4/UART_UART.c ****         #if(UART_UART_RX_WAKE_PIN)
 832:.\Generated_Source\PSoC4/UART_UART.c ****             (void) UART_rx_wake_ClearInterrupt();
 833:.\Generated_Source\PSoC4/UART_UART.c ****         #endif /* (UART_UART_RX_WAKE_PIN) */
 834:.\Generated_Source\PSoC4/UART_UART.c ****     #endif /* (UART_SCB_MODE_UNCONFIG_CONST_CFG) */
 835:.\Generated_Source\PSoC4/UART_UART.c **** 
 836:.\Generated_Source\PSoC4/UART_UART.c ****     #if(UART_UART_RX_WAKEUP_IRQ)
 837:.\Generated_Source\PSoC4/UART_UART.c ****         UART_RxWakeClearPendingInt();
 838:.\Generated_Source\PSoC4/UART_UART.c ****         UART_RxWakeEnableInt();
 839:.\Generated_Source\PSoC4/UART_UART.c ****     #endif /* (UART_UART_RX_WAKEUP_IRQ) */
 840:.\Generated_Source\PSoC4/UART_UART.c ****     }
 841:.\Generated_Source\PSoC4/UART_UART.c **** 
 842:.\Generated_Source\PSoC4/UART_UART.c **** 
 843:.\Generated_Source\PSoC4/UART_UART.c ****     /*******************************************************************************
 844:.\Generated_Source\PSoC4/UART_UART.c ****     * Function Name: UART_UartRestoreConfig
 845:.\Generated_Source\PSoC4/UART_UART.c ****     ********************************************************************************
 846:.\Generated_Source\PSoC4/UART_UART.c ****     *
 847:.\Generated_Source\PSoC4/UART_UART.c ****     * Summary:
 848:.\Generated_Source\PSoC4/UART_UART.c ****     *  Disables the RX GPIO interrupt. Until this function is called the interrupt
 849:.\Generated_Source\PSoC4/UART_UART.c ****     *  remains active and triggers on every falling edge of the UART RX line.
 850:.\Generated_Source\PSoC4/UART_UART.c ****     *
 851:.\Generated_Source\PSoC4/UART_UART.c ****     * Parameters:
 852:.\Generated_Source\PSoC4/UART_UART.c ****     *  None
 853:.\Generated_Source\PSoC4/UART_UART.c ****     *
 854:.\Generated_Source\PSoC4/UART_UART.c ****     * Return:
 855:.\Generated_Source\PSoC4/UART_UART.c ****     *  None
 856:.\Generated_Source\PSoC4/UART_UART.c ****     *
 857:.\Generated_Source\PSoC4/UART_UART.c ****     *******************************************************************************/
 858:.\Generated_Source\PSoC4/UART_UART.c ****     void UART_UartRestoreConfig(void)
 859:.\Generated_Source\PSoC4/UART_UART.c ****     {
 860:.\Generated_Source\PSoC4/UART_UART.c ****     /* Disable RX GPIO interrupt: no more triggers in active mode */
 861:.\Generated_Source\PSoC4/UART_UART.c ****     #if(UART_UART_RX_WAKEUP_IRQ)
 862:.\Generated_Source\PSoC4/UART_UART.c ****         UART_RxWakeDisableInt();
 863:.\Generated_Source\PSoC4/UART_UART.c ****     #endif /* (UART_UART_RX_WAKEUP_IRQ) */
 864:.\Generated_Source\PSoC4/UART_UART.c ****     }
 865:.\Generated_Source\PSoC4/UART_UART.c **** #endif /* (UART_UART_WAKE_ENABLE_CONST) */
 866:.\Generated_Source\PSoC4/UART_UART.c **** 
 867:.\Generated_Source\PSoC4/UART_UART.c **** 
 868:.\Generated_Source\PSoC4/UART_UART.c **** #if(UART_UART_RX_WAKEUP_IRQ)
 869:.\Generated_Source\PSoC4/UART_UART.c ****     /*******************************************************************************
 870:.\Generated_Source\PSoC4/UART_UART.c ****     * Function Name: UART_UART_WAKEUP_ISR
 871:.\Generated_Source\PSoC4/UART_UART.c ****     ********************************************************************************
 872:.\Generated_Source\PSoC4/UART_UART.c ****     *
 873:.\Generated_Source\PSoC4/UART_UART.c ****     * Summary:
 874:.\Generated_Source\PSoC4/UART_UART.c ****     *  Handles the Interrupt Service Routine for the SCB UART mode GPIO wakeup
 875:.\Generated_Source\PSoC4/UART_UART.c ****     *  event. This event is configured to trigger on a falling edge of the RX line.
 876:.\Generated_Source\PSoC4/UART_UART.c ****     *
 877:.\Generated_Source\PSoC4/UART_UART.c ****     * Parameters:
 878:.\Generated_Source\PSoC4/UART_UART.c ****     *  None
 879:.\Generated_Source\PSoC4/UART_UART.c ****     *
 880:.\Generated_Source\PSoC4/UART_UART.c ****     * Return:
 881:.\Generated_Source\PSoC4/UART_UART.c ****     *  None
 882:.\Generated_Source\PSoC4/UART_UART.c ****     *
 883:.\Generated_Source\PSoC4/UART_UART.c ****     *******************************************************************************/
 884:.\Generated_Source\PSoC4/UART_UART.c ****     CY_ISR(UART_UART_WAKEUP_ISR)
 885:.\Generated_Source\PSoC4/UART_UART.c ****     {
  26              		.loc 1 885 0
  27              		.cfi_startproc
ARM GAS  C:\Users\Helon\AppData\Local\Temp\ccnwpPdR.s 			page 17


  28 0000 08B5     		push	{r3, lr}
  29              		.cfi_def_cfa_offset 8
  30              		.cfi_offset 3, -8
  31              		.cfi_offset 14, -4
 886:.\Generated_Source\PSoC4/UART_UART.c ****     #ifdef UART_UART_WAKEUP_ISR_ENTRY_CALLBACK
 887:.\Generated_Source\PSoC4/UART_UART.c ****         UART_UART_WAKEUP_ISR_EntryCallback();
 888:.\Generated_Source\PSoC4/UART_UART.c ****     #endif /* UART_UART_WAKEUP_ISR_ENTRY_CALLBACK */
 889:.\Generated_Source\PSoC4/UART_UART.c **** 
 890:.\Generated_Source\PSoC4/UART_UART.c ****         /* Clear interrupt source: the event becomes multi triggered and is
 891:.\Generated_Source\PSoC4/UART_UART.c ****         * only disabled by UART_UartRestoreConfig() call.
 892:.\Generated_Source\PSoC4/UART_UART.c ****         */
 893:.\Generated_Source\PSoC4/UART_UART.c ****     #if(UART_SCB_MODE_UNCONFIG_CONST_CFG)
 894:.\Generated_Source\PSoC4/UART_UART.c ****         #if(UART_MOSI_SCL_RX_WAKE_PIN)
 895:.\Generated_Source\PSoC4/UART_UART.c ****             (void) UART_uart_rx_wake_i2c_sda_spi_mosi_ClearInterrupt();
 896:.\Generated_Source\PSoC4/UART_UART.c ****         #endif /* (UART_MOSI_SCL_RX_WAKE_PIN) */
 897:.\Generated_Source\PSoC4/UART_UART.c ****     #else
 898:.\Generated_Source\PSoC4/UART_UART.c ****         #if(UART_UART_RX_WAKE_PIN)
 899:.\Generated_Source\PSoC4/UART_UART.c ****             (void) UART_rx_wake_ClearInterrupt();
  32              		.loc 1 899 0
  33 0002 FFF7FEFF 		bl	UART_rx_wake_ClearInterrupt
  34              	.LVL0:
 900:.\Generated_Source\PSoC4/UART_UART.c ****         #endif /* (UART_UART_RX_WAKE_PIN) */
 901:.\Generated_Source\PSoC4/UART_UART.c ****     #endif /* (UART_SCB_MODE_UNCONFIG_CONST_CFG) */
 902:.\Generated_Source\PSoC4/UART_UART.c **** 
 903:.\Generated_Source\PSoC4/UART_UART.c ****     #ifdef UART_UART_WAKEUP_ISR_EXIT_CALLBACK
 904:.\Generated_Source\PSoC4/UART_UART.c ****         UART_UART_WAKEUP_ISR_ExitCallback();
 905:.\Generated_Source\PSoC4/UART_UART.c ****     #endif /* UART_UART_WAKEUP_ISR_EXIT_CALLBACK */
 906:.\Generated_Source\PSoC4/UART_UART.c ****     }
  35              		.loc 1 906 0
  36              		@ sp needed
  37 0006 08BD     		pop	{r3, pc}
  38              		.cfi_endproc
  39              	.LFE18:
  40              		.size	UART_UART_WAKEUP_ISR, .-UART_UART_WAKEUP_ISR
  41              		.section	.text.UART_UartInit,"ax",%progbits
  42              		.align	2
  43              		.global	UART_UartInit
  44              		.code	16
  45              		.thumb_func
  46              		.type	UART_UartInit, %function
  47              	UART_UartInit:
  48              	.LFB2:
 231:.\Generated_Source\PSoC4/UART_UART.c ****         /* Configure UART interface */
  49              		.loc 1 231 0
  50              		.cfi_startproc
  51 0000 38B5     		push	{r3, r4, r5, lr}
  52              		.cfi_def_cfa_offset 16
  53              		.cfi_offset 3, -16
  54              		.cfi_offset 4, -12
  55              		.cfi_offset 5, -8
  56              		.cfi_offset 14, -4
 233:.\Generated_Source\PSoC4/UART_UART.c **** 
  57              		.loc 1 233 0
  58 0002 214A     		ldr	r2, .L3
  59 0004 214B     		ldr	r3, .L3+4
  60 0006 1A60     		str	r2, [r3]
 236:.\Generated_Source\PSoC4/UART_UART.c **** 
ARM GAS  C:\Users\Helon\AppData\Local\Temp\ccnwpPdR.s 			page 18


  61              		.loc 1 236 0
  62 0008 0024     		mov	r4, #0
  63 000a 214B     		ldr	r3, .L3+8
  64 000c 1C60     		str	r4, [r3]
 239:.\Generated_Source\PSoC4/UART_UART.c ****         UART_RX_CTRL_REG      = UART_UART_DEFAULT_RX_CTRL;
  65              		.loc 1 239 0
  66 000e 0122     		mov	r2, #1
  67 0010 204B     		ldr	r3, .L3+12
  68 0012 1A60     		str	r2, [r3]
 240:.\Generated_Source\PSoC4/UART_UART.c ****         UART_RX_FIFO_CTRL_REG = UART_UART_DEFAULT_RX_FIFO_CTRL;
  69              		.loc 1 240 0
  70 0014 204B     		ldr	r3, .L3+16
  71 0016 2149     		ldr	r1, .L3+20
  72 0018 0B60     		str	r3, [r1]
 241:.\Generated_Source\PSoC4/UART_UART.c ****         UART_RX_MATCH_REG     = UART_UART_DEFAULT_RX_MATCH_REG;
  73              		.loc 1 241 0
  74 001a 0720     		mov	r0, #7
  75 001c 2049     		ldr	r1, .L3+24
  76 001e 0860     		str	r0, [r1]
 242:.\Generated_Source\PSoC4/UART_UART.c **** 
  77              		.loc 1 242 0
  78 0020 2049     		ldr	r1, .L3+28
  79 0022 0C60     		str	r4, [r1]
 245:.\Generated_Source\PSoC4/UART_UART.c ****         UART_TX_CTRL_REG      = UART_UART_DEFAULT_TX_CTRL;
  80              		.loc 1 245 0
  81 0024 2049     		ldr	r1, .L3+32
  82 0026 0A60     		str	r2, [r1]
 246:.\Generated_Source\PSoC4/UART_UART.c ****         UART_TX_FIFO_CTRL_REG = UART_UART_DEFAULT_TX_FIFO_CTRL;
  83              		.loc 1 246 0
  84 0028 204A     		ldr	r2, .L3+36
  85 002a 1360     		str	r3, [r2]
 247:.\Generated_Source\PSoC4/UART_UART.c **** 
  86              		.loc 1 247 0
  87 002c 204B     		ldr	r3, .L3+40
  88 002e 1C60     		str	r4, [r3]
 250:.\Generated_Source\PSoC4/UART_UART.c ****     #endif /* !(UART_CY_SCBIP_V0 || UART_CY_SCBIP_V1) */
  89              		.loc 1 250 0
  90 0030 0425     		mov	r5, #4
  91 0032 204B     		ldr	r3, .L3+44
  92 0034 1D60     		str	r5, [r3]
 255:.\Generated_Source\PSoC4/UART_UART.c ****         CyIntSetPriority(UART_ISR_NUMBER, UART_ISR_PRIORITY);
  93              		.loc 1 255 0
  94 0036 0330     		add	r0, r0, #3
  95 0038 FFF7FEFF 		bl	CyIntDisable
  96              	.LVL1:
 256:.\Generated_Source\PSoC4/UART_UART.c ****         (void) CyIntSetVector(UART_ISR_NUMBER, &UART_SPI_UART_ISR);
  97              		.loc 1 256 0
  98 003c 0A20     		mov	r0, #10
  99 003e 0321     		mov	r1, #3
 100 0040 FFF7FEFF 		bl	CyIntSetPriority
 101              	.LVL2:
 257:.\Generated_Source\PSoC4/UART_UART.c ****     #endif /* (UART_SCB_IRQ_INTERNAL) */
 102              		.loc 1 257 0
 103 0044 0A20     		mov	r0, #10
 104 0046 1C49     		ldr	r1, .L3+48
 105 0048 FFF7FEFF 		bl	CyIntSetVector
 106              	.LVL3:
ARM GAS  C:\Users\Helon\AppData\Local\Temp\ccnwpPdR.s 			page 19


 262:.\Generated_Source\PSoC4/UART_UART.c ****         CyIntSetPriority(UART_RX_WAKE_ISR_NUMBER, UART_RX_WAKE_ISR_PRIORITY);
 107              		.loc 1 262 0
 108 004c 0320     		mov	r0, #3
 109 004e FFF7FEFF 		bl	CyIntDisable
 110              	.LVL4:
 263:.\Generated_Source\PSoC4/UART_UART.c ****         (void) CyIntSetVector(UART_RX_WAKE_ISR_NUMBER, &UART_UART_WAKEUP_ISR);
 111              		.loc 1 263 0
 112 0052 0320     		mov	r0, #3
 113 0054 0321     		mov	r1, #3
 114 0056 FFF7FEFF 		bl	CyIntSetPriority
 115              	.LVL5:
 264:.\Generated_Source\PSoC4/UART_UART.c ****     #endif /* (UART_UART_RX_WAKEUP_IRQ) */
 116              		.loc 1 264 0
 117 005a 0320     		mov	r0, #3
 118 005c 1749     		ldr	r1, .L3+52
 119 005e FFF7FEFF 		bl	CyIntSetVector
 120              	.LVL6:
 268:.\Generated_Source\PSoC4/UART_UART.c ****         UART_INTR_SPI_EC_MASK_REG = UART_UART_DEFAULT_INTR_SPI_EC_MASK;
 121              		.loc 1 268 0
 122 0062 174B     		ldr	r3, .L3+56
 123 0064 1C60     		str	r4, [r3]
 269:.\Generated_Source\PSoC4/UART_UART.c ****         UART_INTR_SLAVE_MASK_REG  = UART_UART_DEFAULT_INTR_SLAVE_MASK;
 124              		.loc 1 269 0
 125 0066 174B     		ldr	r3, .L3+60
 126 0068 1C60     		str	r4, [r3]
 270:.\Generated_Source\PSoC4/UART_UART.c ****         UART_INTR_MASTER_MASK_REG = UART_UART_DEFAULT_INTR_MASTER_MASK;
 127              		.loc 1 270 0
 128 006a 174B     		ldr	r3, .L3+64
 129 006c 1C60     		str	r4, [r3]
 271:.\Generated_Source\PSoC4/UART_UART.c ****         UART_INTR_RX_MASK_REG     = UART_UART_DEFAULT_INTR_RX_MASK;
 130              		.loc 1 271 0
 131 006e 174B     		ldr	r3, .L3+68
 132 0070 1C60     		str	r4, [r3]
 272:.\Generated_Source\PSoC4/UART_UART.c ****         UART_INTR_TX_MASK_REG     = UART_UART_DEFAULT_INTR_TX_MASK;
 133              		.loc 1 272 0
 134 0072 174B     		ldr	r3, .L3+72
 135 0074 1D60     		str	r5, [r3]
 273:.\Generated_Source\PSoC4/UART_UART.c **** 
 136              		.loc 1 273 0
 137 0076 174B     		ldr	r3, .L3+76
 138 0078 1C60     		str	r4, [r3]
 276:.\Generated_Source\PSoC4/UART_UART.c ****         UART_rxBufferTail     = 0u;
 139              		.loc 1 276 0
 140 007a 174B     		ldr	r3, .L3+80
 141 007c 1C60     		str	r4, [r3]
 277:.\Generated_Source\PSoC4/UART_UART.c ****         UART_rxBufferOverflow = 0u;
 142              		.loc 1 277 0
 143 007e 174B     		ldr	r3, .L3+84
 144 0080 1C60     		str	r4, [r3]
 278:.\Generated_Source\PSoC4/UART_UART.c ****     #endif /* (UART_INTERNAL_RX_SW_BUFFER_CONST) */
 145              		.loc 1 278 0
 146 0082 174B     		ldr	r3, .L3+88
 147 0084 1C70     		strb	r4, [r3]
 285:.\Generated_Source\PSoC4/UART_UART.c **** #endif /* (UART_SCB_MODE_UNCONFIG_CONST_CFG) */
 148              		.loc 1 285 0
 149              		@ sp needed
 150 0086 38BD     		pop	{r3, r4, r5, pc}
ARM GAS  C:\Users\Helon\AppData\Local\Temp\ccnwpPdR.s 			page 20


 151              	.L4:
 152              		.align	2
 153              	.L3:
 154 0088 0B000002 		.word	33554443
 155 008c 00002540 		.word	1076166656
 156 0090 40002540 		.word	1076166720
 157 0094 48002540 		.word	1076166728
 158 0098 07000080 		.word	-2147483641
 159 009c 00032540 		.word	1076167424
 160 00a0 04032540 		.word	1076167428
 161 00a4 10032540 		.word	1076167440
 162 00a8 44002540 		.word	1076166724
 163 00ac 00022540 		.word	1076167168
 164 00b0 04022540 		.word	1076167172
 165 00b4 50002540 		.word	1076166736
 166 00b8 00000000 		.word	UART_SPI_UART_ISR
 167 00bc 00000000 		.word	UART_UART_WAKEUP_ISR
 168 00c0 880E2540 		.word	1076170376
 169 00c4 C80E2540 		.word	1076170440
 170 00c8 480F2540 		.word	1076170568
 171 00cc 080F2540 		.word	1076170504
 172 00d0 C80F2540 		.word	1076170696
 173 00d4 880F2540 		.word	1076170632
 174 00d8 00000000 		.word	UART_rxBufferHead
 175 00dc 00000000 		.word	UART_rxBufferTail
 176 00e0 00000000 		.word	UART_rxBufferOverflow
 177              		.cfi_endproc
 178              	.LFE2:
 179              		.size	UART_UartInit, .-UART_UartInit
 180              		.section	.text.UART_UartPostEnable,"ax",%progbits
 181              		.align	2
 182              		.global	UART_UartPostEnable
 183              		.code	16
 184              		.thumb_func
 185              		.type	UART_UartPostEnable, %function
 186              	UART_UartPostEnable:
 187              	.LFB3:
 305:.\Generated_Source\PSoC4/UART_UART.c **** #if (UART_SCB_MODE_UNCONFIG_CONST_CFG)
 188              		.loc 1 305 0
 189              		.cfi_startproc
 329:.\Generated_Source\PSoC4/UART_UART.c ****                                    UART_TX_HSIOM_POS, UART_HSIOM_UART_SEL);
 190              		.loc 1 329 0
 191 0000 044A     		ldr	r2, .L6
 192 0002 1168     		ldr	r1, [r2]
 193 0004 044B     		ldr	r3, .L6+4
 194 0006 0B40     		and	r3, r1
 195 0008 9021     		mov	r1, #144
 196 000a 0904     		lsl	r1, r1, #16
 197 000c 0B43     		orr	r3, r1
 198 000e 1360     		str	r3, [r2]
 340:.\Generated_Source\PSoC4/UART_UART.c **** 
 199              		.loc 1 340 0
 200              		@ sp needed
 201 0010 7047     		bx	lr
 202              	.L7:
 203 0012 C046     		.align	2
 204              	.L6:
ARM GAS  C:\Users\Helon\AppData\Local\Temp\ccnwpPdR.s 			page 21


 205 0014 00030240 		.word	1073873664
 206 0018 FFFF0FFF 		.word	-15728641
 207              		.cfi_endproc
 208              	.LFE3:
 209              		.size	UART_UartPostEnable, .-UART_UartPostEnable
 210              		.section	.text.UART_UartStop,"ax",%progbits
 211              		.align	2
 212              		.global	UART_UartStop
 213              		.code	16
 214              		.thumb_func
 215              		.type	UART_UartStop, %function
 216              	UART_UartStop:
 217              	.LFB4:
 361:.\Generated_Source\PSoC4/UART_UART.c **** #if(UART_SCB_MODE_UNCONFIG_CONST_CFG)
 218              		.loc 1 361 0
 219              		.cfi_startproc
 387:.\Generated_Source\PSoC4/UART_UART.c ****                                        UART_TX_HSIOM_POS, UART_HSIOM_GPIO_SEL);
 220              		.loc 1 387 0
 221 0000 054A     		ldr	r2, .L9
 222 0002 1168     		ldr	r1, [r2]
 223 0004 054B     		ldr	r3, .L9+4
 224 0006 0B40     		and	r3, r1
 225 0008 1360     		str	r3, [r2]
 404:.\Generated_Source\PSoC4/UART_UART.c **** #endif /* (UART_UART_WAKE_ENABLE_CONST) */
 226              		.loc 1 404 0
 227 000a 054A     		ldr	r2, .L9+8
 228 000c 1168     		ldr	r1, [r2]
 229 000e 054B     		ldr	r3, .L9+12
 230 0010 0B40     		and	r3, r1
 231 0012 1360     		str	r3, [r2]
 406:.\Generated_Source\PSoC4/UART_UART.c **** 
 232              		.loc 1 406 0
 233              		@ sp needed
 234 0014 7047     		bx	lr
 235              	.L10:
 236 0016 C046     		.align	2
 237              	.L9:
 238 0018 00030240 		.word	1073873664
 239 001c FFFF0FFF 		.word	-15728641
 240 0020 48002540 		.word	1076166728
 241 0024 FFDFFFFF 		.word	-8193
 242              		.cfi_endproc
 243              	.LFE4:
 244              		.size	UART_UartStop, .-UART_UartStop
 245              		.section	.text.UART_UartSetRxAddress,"ax",%progbits
 246              		.align	2
 247              		.global	UART_UartSetRxAddress
 248              		.code	16
 249              		.thumb_func
 250              		.type	UART_UartSetRxAddress, %function
 251              	UART_UartSetRxAddress:
 252              	.LFB5:
 425:.\Generated_Source\PSoC4/UART_UART.c ****      uint32 matchReg;
 253              		.loc 1 425 0
 254              		.cfi_startproc
 255              	.LVL7:
 428:.\Generated_Source\PSoC4/UART_UART.c **** 
ARM GAS  C:\Users\Helon\AppData\Local\Temp\ccnwpPdR.s 			page 22


 256              		.loc 1 428 0
 257 0000 034A     		ldr	r2, .L12
 258 0002 1368     		ldr	r3, [r2]
 259              	.LVL8:
 430:.\Generated_Source\PSoC4/UART_UART.c ****     matchReg |= ((uint32)  (address & UART_RX_MATCH_ADDR_MASK)); /* Set address  */
 260              		.loc 1 430 0
 261 0004 FF21     		mov	r1, #255
 262 0006 8B43     		bic	r3, r1
 263              	.LVL9:
 431:.\Generated_Source\PSoC4/UART_UART.c **** 
 264              		.loc 1 431 0
 265 0008 0840     		and	r0, r1
 266              	.LVL10:
 267 000a 1843     		orr	r0, r3
 268              	.LVL11:
 433:.\Generated_Source\PSoC4/UART_UART.c **** }
 269              		.loc 1 433 0
 270 000c 1060     		str	r0, [r2]
 434:.\Generated_Source\PSoC4/UART_UART.c **** 
 271              		.loc 1 434 0
 272              		@ sp needed
 273 000e 7047     		bx	lr
 274              	.L13:
 275              		.align	2
 276              	.L12:
 277 0010 10032540 		.word	1076167440
 278              		.cfi_endproc
 279              	.LFE5:
 280              		.size	UART_UartSetRxAddress, .-UART_UartSetRxAddress
 281              		.section	.text.UART_UartSetRxAddressMask,"ax",%progbits
 282              		.align	2
 283              		.global	UART_UartSetRxAddressMask
 284              		.code	16
 285              		.thumb_func
 286              		.type	UART_UartSetRxAddressMask, %function
 287              	UART_UartSetRxAddressMask:
 288              	.LFB6:
 454:.\Generated_Source\PSoC4/UART_UART.c ****     uint32 matchReg;
 289              		.loc 1 454 0
 290              		.cfi_startproc
 291              	.LVL12:
 457:.\Generated_Source\PSoC4/UART_UART.c **** 
 292              		.loc 1 457 0
 293 0000 034A     		ldr	r2, .L15
 294 0002 1168     		ldr	r1, [r2]
 295              	.LVL13:
 459:.\Generated_Source\PSoC4/UART_UART.c ****     matchReg |= ((uint32) (addressMask << UART_RX_MATCH_MASK_POS));
 296              		.loc 1 459 0
 297 0004 034B     		ldr	r3, .L15+4
 298 0006 0B40     		and	r3, r1
 299              	.LVL14:
 460:.\Generated_Source\PSoC4/UART_UART.c **** 
 300              		.loc 1 460 0
 301 0008 0004     		lsl	r0, r0, #16
 302              	.LVL15:
 303 000a 1843     		orr	r0, r3
 304              	.LVL16:
ARM GAS  C:\Users\Helon\AppData\Local\Temp\ccnwpPdR.s 			page 23


 462:.\Generated_Source\PSoC4/UART_UART.c **** }
 305              		.loc 1 462 0
 306 000c 1060     		str	r0, [r2]
 463:.\Generated_Source\PSoC4/UART_UART.c **** 
 307              		.loc 1 463 0
 308              		@ sp needed
 309 000e 7047     		bx	lr
 310              	.L16:
 311              		.align	2
 312              	.L15:
 313 0010 10032540 		.word	1076167440
 314 0014 FFFF00FF 		.word	-16711681
 315              		.cfi_endproc
 316              	.LFE6:
 317              		.size	UART_UartSetRxAddressMask, .-UART_UartSetRxAddressMask
 318              		.section	.text.UART_UartGetChar,"ax",%progbits
 319              		.align	2
 320              		.global	UART_UartGetChar
 321              		.code	16
 322              		.thumb_func
 323              		.type	UART_UartGetChar, %function
 324              	UART_UartGetChar:
 325              	.LFB7:
 499:.\Generated_Source\PSoC4/UART_UART.c ****         uint32 rxData = 0u;
 326              		.loc 1 499 0
 327              		.cfi_startproc
 328 0000 08B5     		push	{r3, lr}
 329              		.cfi_def_cfa_offset 8
 330              		.cfi_offset 3, -8
 331              		.cfi_offset 14, -4
 332              	.LVL17:
 503:.\Generated_Source\PSoC4/UART_UART.c ****         {
 333              		.loc 1 503 0
 334 0002 FFF7FEFF 		bl	UART_SpiUartGetRxBufferSize
 335              	.LVL18:
 336 0006 0028     		cmp	r0, #0
 337 0008 02D0     		beq	.L20
 505:.\Generated_Source\PSoC4/UART_UART.c ****         }
 338              		.loc 1 505 0
 339 000a FFF7FEFF 		bl	UART_SpiUartReadRxData
 340              	.LVL19:
 341 000e 00E0     		b	.L18
 342              	.LVL20:
 343              	.L20:
 500:.\Generated_Source\PSoC4/UART_UART.c **** 
 344              		.loc 1 500 0
 345 0010 0020     		mov	r0, #0
 346              	.LVL21:
 347              	.L18:
 508:.\Generated_Source\PSoC4/UART_UART.c ****         {
 348              		.loc 1 508 0
 349 0012 054B     		ldr	r3, .L21
 350 0014 1A68     		ldr	r2, [r3]
 351 0016 D823     		mov	r3, #216
 352 0018 9B00     		lsl	r3, r3, #2
 353 001a 1A42     		tst	r2, r3
 354 001c 03D0     		beq	.L19
ARM GAS  C:\Users\Helon\AppData\Local\Temp\ccnwpPdR.s 			page 24


 355              	.LVL22:
 511:.\Generated_Source\PSoC4/UART_UART.c ****         }
 356              		.loc 1 511 0
 357 001e 1A1C     		mov	r2, r3
 358 0020 014B     		ldr	r3, .L21
 359 0022 1A60     		str	r2, [r3]
 510:.\Generated_Source\PSoC4/UART_UART.c ****             UART_ClearRxInterruptSource(UART_INTR_RX_ERR);
 360              		.loc 1 510 0
 361 0024 0020     		mov	r0, #0
 362              	.LVL23:
 363              	.L19:
 515:.\Generated_Source\PSoC4/UART_UART.c **** 
 364              		.loc 1 515 0
 365              		@ sp needed
 366 0026 08BD     		pop	{r3, pc}
 367              	.L22:
 368              		.align	2
 369              	.L21:
 370 0028 C00F2540 		.word	1076170688
 371              		.cfi_endproc
 372              	.LFE7:
 373              		.size	UART_UartGetChar, .-UART_UartGetChar
 374              		.section	.text.UART_UartGetByte,"ax",%progbits
 375              		.align	2
 376              		.global	UART_UartGetByte
 377              		.code	16
 378              		.thumb_func
 379              		.type	UART_UartGetByte, %function
 380              	UART_UartGetByte:
 381              	.LFB8:
 547:.\Generated_Source\PSoC4/UART_UART.c ****         uint32 rxData;
 382              		.loc 1 547 0
 383              		.cfi_startproc
 384 0000 10B5     		push	{r4, lr}
 385              		.cfi_def_cfa_offset 8
 386              		.cfi_offset 4, -8
 387              		.cfi_offset 14, -4
 553:.\Generated_Source\PSoC4/UART_UART.c ****         }
 388              		.loc 1 553 0
 389 0002 0A20     		mov	r0, #10
 390 0004 FFF7FEFF 		bl	CyIntDisable
 391              	.LVL24:
 557:.\Generated_Source\PSoC4/UART_UART.c ****         {
 392              		.loc 1 557 0
 393 0008 FFF7FEFF 		bl	UART_SpiUartGetRxBufferSize
 394              	.LVL25:
 395 000c 0028     		cmp	r0, #0
 396 000e 06D0     		beq	.L24
 564:.\Generated_Source\PSoC4/UART_UART.c ****             }
 397              		.loc 1 564 0
 398 0010 0A20     		mov	r0, #10
 399 0012 FFF7FEFF 		bl	CyIntEnable
 400              	.LVL26:
 569:.\Generated_Source\PSoC4/UART_UART.c ****         }
 401              		.loc 1 569 0
 402 0016 FFF7FEFF 		bl	UART_SpiUartReadRxData
 403              	.LVL27:
ARM GAS  C:\Users\Helon\AppData\Local\Temp\ccnwpPdR.s 			page 25


 404 001a 041C     		mov	r4, r0
 405              	.LVL28:
 406 001c 04E0     		b	.L25
 407              	.LVL29:
 408              	.L24:
 576:.\Generated_Source\PSoC4/UART_UART.c **** 
 409              		.loc 1 576 0
 410 001e 074B     		ldr	r3, .L26
 411 0020 1C68     		ldr	r4, [r3]
 412              	.LVL30:
 584:.\Generated_Source\PSoC4/UART_UART.c ****             }
 413              		.loc 1 584 0
 414 0022 0A20     		mov	r0, #10
 415 0024 FFF7FEFF 		bl	CyIntEnable
 416              	.LVL31:
 417              	.L25:
 590:.\Generated_Source\PSoC4/UART_UART.c ****         UART_ClearRxInterruptSource(UART_INTR_RX_ERR);
 418              		.loc 1 590 0
 419 0028 054B     		ldr	r3, .L26+4
 420 002a 1868     		ldr	r0, [r3]
 421 002c D822     		mov	r2, #216
 422 002e 9200     		lsl	r2, r2, #2
 423 0030 1040     		and	r0, r2
 424              	.LVL32:
 591:.\Generated_Source\PSoC4/UART_UART.c **** 
 425              		.loc 1 591 0
 426 0032 1A60     		str	r2, [r3]
 596:.\Generated_Source\PSoC4/UART_UART.c **** 
 427              		.loc 1 596 0
 428 0034 0002     		lsl	r0, r0, #8
 429              	.LVL33:
 430 0036 2043     		orr	r0, r4
 431              	.LVL34:
 599:.\Generated_Source\PSoC4/UART_UART.c **** 
 432              		.loc 1 599 0
 433              		@ sp needed
 434 0038 10BD     		pop	{r4, pc}
 435              	.L27:
 436 003a C046     		.align	2
 437              	.L26:
 438 003c 40032540 		.word	1076167488
 439 0040 C00F2540 		.word	1076170688
 440              		.cfi_endproc
 441              	.LFE8:
 442              		.size	UART_UartGetByte, .-UART_UartGetByte
 443              		.section	.text.UART_UartSetRtsPolarity,"ax",%progbits
 444              		.align	2
 445              		.global	UART_UartSetRtsPolarity
 446              		.code	16
 447              		.thumb_func
 448              		.type	UART_UartSetRtsPolarity, %function
 449              	UART_UartSetRtsPolarity:
 450              	.LFB9:
 620:.\Generated_Source\PSoC4/UART_UART.c ****             if(0u != polarity)
 451              		.loc 1 620 0
 452              		.cfi_startproc
 453              	.LVL35:
ARM GAS  C:\Users\Helon\AppData\Local\Temp\ccnwpPdR.s 			page 26


 621:.\Generated_Source\PSoC4/UART_UART.c ****             {
 454              		.loc 1 621 0
 455 0000 0028     		cmp	r0, #0
 456 0002 06D0     		beq	.L29
 623:.\Generated_Source\PSoC4/UART_UART.c ****             }
 457              		.loc 1 623 0
 458 0004 064A     		ldr	r2, .L31
 459 0006 1368     		ldr	r3, [r2]
 460 0008 8021     		mov	r1, #128
 461 000a 4902     		lsl	r1, r1, #9
 462 000c 0B43     		orr	r3, r1
 463 000e 1360     		str	r3, [r2]
 464 0010 04E0     		b	.L28
 465              	.L29:
 627:.\Generated_Source\PSoC4/UART_UART.c ****             }
 466              		.loc 1 627 0
 467 0012 034A     		ldr	r2, .L31
 468 0014 1168     		ldr	r1, [r2]
 469 0016 034B     		ldr	r3, .L31+4
 470 0018 0B40     		and	r3, r1
 471 001a 1360     		str	r3, [r2]
 472              	.L28:
 629:.\Generated_Source\PSoC4/UART_UART.c **** 
 473              		.loc 1 629 0
 474              		@ sp needed
 475 001c 7047     		bx	lr
 476              	.L32:
 477 001e C046     		.align	2
 478              	.L31:
 479 0020 50002540 		.word	1076166736
 480 0024 FFFFFEFF 		.word	-65537
 481              		.cfi_endproc
 482              	.LFE9:
 483              		.size	UART_UartSetRtsPolarity, .-UART_UartSetRtsPolarity
 484              		.section	.text.UART_UartSetRtsFifoLevel,"ax",%progbits
 485              		.align	2
 486              		.global	UART_UartSetRtsFifoLevel
 487              		.code	16
 488              		.thumb_func
 489              		.type	UART_UartSetRtsFifoLevel, %function
 490              	UART_UartSetRtsFifoLevel:
 491              	.LFB10:
 651:.\Generated_Source\PSoC4/UART_UART.c ****             uint32 uartFlowCtrl;
 492              		.loc 1 651 0
 493              		.cfi_startproc
 494              	.LVL36:
 654:.\Generated_Source\PSoC4/UART_UART.c **** 
 495              		.loc 1 654 0
 496 0000 034A     		ldr	r2, .L34
 497 0002 1368     		ldr	r3, [r2]
 498              	.LVL37:
 656:.\Generated_Source\PSoC4/UART_UART.c ****             uartFlowCtrl |= ((uint32) (UART_UART_FLOW_CTRL_TRIGGER_LEVEL_MASK & level));
 499              		.loc 1 656 0
 500 0004 0F21     		mov	r1, #15
 501 0006 8B43     		bic	r3, r1
 502              	.LVL38:
 657:.\Generated_Source\PSoC4/UART_UART.c **** 
ARM GAS  C:\Users\Helon\AppData\Local\Temp\ccnwpPdR.s 			page 27


 503              		.loc 1 657 0
 504 0008 0840     		and	r0, r1
 505              	.LVL39:
 506 000a 1843     		orr	r0, r3
 507              	.LVL40:
 659:.\Generated_Source\PSoC4/UART_UART.c ****         }
 508              		.loc 1 659 0
 509 000c 1060     		str	r0, [r2]
 660:.\Generated_Source\PSoC4/UART_UART.c ****     #endif /* !(UART_CY_SCBIP_V0 || UART_CY_SCBIP_V1) */
 510              		.loc 1 660 0
 511              		@ sp needed
 512 000e 7047     		bx	lr
 513              	.L35:
 514              		.align	2
 515              	.L34:
 516 0010 50002540 		.word	1076166736
 517              		.cfi_endproc
 518              	.LFE10:
 519              		.size	UART_UartSetRtsFifoLevel, .-UART_UartSetRtsFifoLevel
 520              		.section	.text.UART_UartPutString,"ax",%progbits
 521              		.align	2
 522              		.global	UART_UartPutString
 523              		.code	16
 524              		.thumb_func
 525              		.type	UART_UartPutString, %function
 526              	UART_UartPutString:
 527              	.LFB11:
 686:.\Generated_Source\PSoC4/UART_UART.c ****         uint32 bufIndex;
 528              		.loc 1 686 0
 529              		.cfi_startproc
 530              	.LVL41:
 531 0000 38B5     		push	{r3, r4, r5, lr}
 532              		.cfi_def_cfa_offset 16
 533              		.cfi_offset 3, -16
 534              		.cfi_offset 4, -12
 535              		.cfi_offset 5, -8
 536              		.cfi_offset 14, -4
 537 0002 051C     		mov	r5, r0
 538              	.LVL42:
 689:.\Generated_Source\PSoC4/UART_UART.c **** 
 539              		.loc 1 689 0
 540 0004 0024     		mov	r4, #0
 692:.\Generated_Source\PSoC4/UART_UART.c ****         {
 541              		.loc 1 692 0
 542 0006 02E0     		b	.L37
 543              	.LVL43:
 544              	.L38:
 694:.\Generated_Source\PSoC4/UART_UART.c ****             bufIndex++;
 545              		.loc 1 694 0
 546 0008 FFF7FEFF 		bl	UART_SpiUartWriteTxData
 547              	.LVL44:
 695:.\Generated_Source\PSoC4/UART_UART.c ****         }
 548              		.loc 1 695 0
 549 000c 0134     		add	r4, r4, #1
 550              	.LVL45:
 551              	.L37:
 692:.\Generated_Source\PSoC4/UART_UART.c ****         {
ARM GAS  C:\Users\Helon\AppData\Local\Temp\ccnwpPdR.s 			page 28


 552              		.loc 1 692 0
 553 000e 285D     		ldrb	r0, [r5, r4]
 554 0010 0028     		cmp	r0, #0
 555 0012 F9D1     		bne	.L38
 697:.\Generated_Source\PSoC4/UART_UART.c **** 
 556              		.loc 1 697 0
 557              		@ sp needed
 558              	.LVL46:
 559              	.LVL47:
 560 0014 38BD     		pop	{r3, r4, r5, pc}
 561              		.cfi_endproc
 562              	.LFE11:
 563              		.size	UART_UartPutString, .-UART_UartPutString
 564 0016 C046     		.section	.text.UART_UartPutCRLF,"ax",%progbits
 565              		.align	2
 566              		.global	UART_UartPutCRLF
 567              		.code	16
 568              		.thumb_func
 569              		.type	UART_UartPutCRLF, %function
 570              	UART_UartPutCRLF:
 571              	.LFB12:
 718:.\Generated_Source\PSoC4/UART_UART.c ****         UART_UartPutChar(txDataByte);  /* Blocks control flow until all data has been sent */
 572              		.loc 1 718 0
 573              		.cfi_startproc
 574              	.LVL48:
 575 0000 08B5     		push	{r3, lr}
 576              		.cfi_def_cfa_offset 8
 577              		.cfi_offset 3, -8
 578              		.cfi_offset 14, -4
 719:.\Generated_Source\PSoC4/UART_UART.c ****         UART_UartPutChar(0x0Du);       /* Blocks control flow until all data has been sent */
 579              		.loc 1 719 0
 580 0002 FFF7FEFF 		bl	UART_SpiUartWriteTxData
 581              	.LVL49:
 720:.\Generated_Source\PSoC4/UART_UART.c ****         UART_UartPutChar(0x0Au);       /* Blocks control flow until all data has been sent */
 582              		.loc 1 720 0
 583 0006 0D20     		mov	r0, #13
 584 0008 FFF7FEFF 		bl	UART_SpiUartWriteTxData
 585              	.LVL50:
 721:.\Generated_Source\PSoC4/UART_UART.c ****     }
 586              		.loc 1 721 0
 587 000c 0A20     		mov	r0, #10
 588 000e FFF7FEFF 		bl	UART_SpiUartWriteTxData
 589              	.LVL51:
 722:.\Generated_Source\PSoC4/UART_UART.c **** 
 590              		.loc 1 722 0
 591              		@ sp needed
 592 0012 08BD     		pop	{r3, pc}
 593              		.cfi_endproc
 594              	.LFE12:
 595              		.size	UART_UartPutCRLF, .-UART_UartPutCRLF
 596              		.section	.text.UART_UartEnableCts,"ax",%progbits
 597              		.align	2
 598              		.global	UART_UartEnableCts
 599              		.code	16
 600              		.thumb_func
 601              		.type	UART_UartEnableCts, %function
 602              	UART_UartEnableCts:
ARM GAS  C:\Users\Helon\AppData\Local\Temp\ccnwpPdR.s 			page 29


 603              	.LFB13:
 741:.\Generated_Source\PSoC4/UART_UART.c ****             UART_UART_FLOW_CTRL_REG |= (uint32)  UART_UART_FLOW_CTRL_CTS_ENABLE;
 604              		.loc 1 741 0
 605              		.cfi_startproc
 742:.\Generated_Source\PSoC4/UART_UART.c ****         }
 606              		.loc 1 742 0
 607 0000 034A     		ldr	r2, .L41
 608 0002 1368     		ldr	r3, [r2]
 609 0004 8021     		mov	r1, #128
 610 0006 8904     		lsl	r1, r1, #18
 611 0008 0B43     		orr	r3, r1
 612 000a 1360     		str	r3, [r2]
 743:.\Generated_Source\PSoC4/UART_UART.c **** 
 613              		.loc 1 743 0
 614              		@ sp needed
 615 000c 7047     		bx	lr
 616              	.L42:
 617 000e C046     		.align	2
 618              	.L41:
 619 0010 50002540 		.word	1076166736
 620              		.cfi_endproc
 621              	.LFE13:
 622              		.size	UART_UartEnableCts, .-UART_UartEnableCts
 623              		.section	.text.UART_UartDisableCts,"ax",%progbits
 624              		.align	2
 625              		.global	UART_UartDisableCts
 626              		.code	16
 627              		.thumb_func
 628              		.type	UART_UartDisableCts, %function
 629              	UART_UartDisableCts:
 630              	.LFB14:
 761:.\Generated_Source\PSoC4/UART_UART.c ****             UART_UART_FLOW_CTRL_REG &= (uint32) ~UART_UART_FLOW_CTRL_CTS_ENABLE;
 631              		.loc 1 761 0
 632              		.cfi_startproc
 762:.\Generated_Source\PSoC4/UART_UART.c ****         }
 633              		.loc 1 762 0
 634 0000 024A     		ldr	r2, .L44
 635 0002 1168     		ldr	r1, [r2]
 636 0004 024B     		ldr	r3, .L44+4
 637 0006 0B40     		and	r3, r1
 638 0008 1360     		str	r3, [r2]
 763:.\Generated_Source\PSoC4/UART_UART.c **** 
 639              		.loc 1 763 0
 640              		@ sp needed
 641 000a 7047     		bx	lr
 642              	.L45:
 643              		.align	2
 644              	.L44:
 645 000c 50002540 		.word	1076166736
 646 0010 FFFFFFFD 		.word	-33554433
 647              		.cfi_endproc
 648              	.LFE14:
 649              		.size	UART_UartDisableCts, .-UART_UartDisableCts
 650              		.section	.text.UART_UartSetCtsPolarity,"ax",%progbits
 651              		.align	2
 652              		.global	UART_UartSetCtsPolarity
 653              		.code	16
ARM GAS  C:\Users\Helon\AppData\Local\Temp\ccnwpPdR.s 			page 30


 654              		.thumb_func
 655              		.type	UART_UartSetCtsPolarity, %function
 656              	UART_UartSetCtsPolarity:
 657              	.LFB15:
 783:.\Generated_Source\PSoC4/UART_UART.c ****             if (0u != polarity)
 658              		.loc 1 783 0
 659              		.cfi_startproc
 660              	.LVL52:
 784:.\Generated_Source\PSoC4/UART_UART.c ****             {
 661              		.loc 1 784 0
 662 0000 0028     		cmp	r0, #0
 663 0002 06D0     		beq	.L47
 786:.\Generated_Source\PSoC4/UART_UART.c ****             }
 664              		.loc 1 786 0
 665 0004 064A     		ldr	r2, .L49
 666 0006 1368     		ldr	r3, [r2]
 667 0008 8021     		mov	r1, #128
 668 000a 4904     		lsl	r1, r1, #17
 669 000c 0B43     		orr	r3, r1
 670 000e 1360     		str	r3, [r2]
 671 0010 04E0     		b	.L46
 672              	.L47:
 790:.\Generated_Source\PSoC4/UART_UART.c ****             }
 673              		.loc 1 790 0
 674 0012 034A     		ldr	r2, .L49
 675 0014 1168     		ldr	r1, [r2]
 676 0016 034B     		ldr	r3, .L49+4
 677 0018 0B40     		and	r3, r1
 678 001a 1360     		str	r3, [r2]
 679              	.L46:
 792:.\Generated_Source\PSoC4/UART_UART.c ****     #endif /* !(UART_CY_SCBIP_V0 || UART_CY_SCBIP_V1) */
 680              		.loc 1 792 0
 681              		@ sp needed
 682 001c 7047     		bx	lr
 683              	.L50:
 684 001e C046     		.align	2
 685              	.L49:
 686 0020 50002540 		.word	1076166736
 687 0024 FFFFFFFE 		.word	-16777217
 688              		.cfi_endproc
 689              	.LFE15:
 690              		.size	UART_UartSetCtsPolarity, .-UART_UartSetCtsPolarity
 691              		.section	.text.UART_UartSaveConfig,"ax",%progbits
 692              		.align	2
 693              		.global	UART_UartSaveConfig
 694              		.code	16
 695              		.thumb_func
 696              		.type	UART_UartSaveConfig, %function
 697              	UART_UartSaveConfig:
 698              	.LFB16:
 817:.\Generated_Source\PSoC4/UART_UART.c ****         /* Clear interrupt activity:
 699              		.loc 1 817 0
 700              		.cfi_startproc
 701 0000 08B5     		push	{r3, lr}
 702              		.cfi_def_cfa_offset 8
 703              		.cfi_offset 3, -8
 704              		.cfi_offset 14, -4
ARM GAS  C:\Users\Helon\AppData\Local\Temp\ccnwpPdR.s 			page 31


 824:.\Generated_Source\PSoC4/UART_UART.c **** 
 705              		.loc 1 824 0
 706 0002 074A     		ldr	r2, .L52
 707 0004 1368     		ldr	r3, [r2]
 708 0006 8021     		mov	r1, #128
 709 0008 8901     		lsl	r1, r1, #6
 710 000a 0B43     		orr	r3, r1
 711 000c 1360     		str	r3, [r2]
 832:.\Generated_Source\PSoC4/UART_UART.c ****         #endif /* (UART_UART_RX_WAKE_PIN) */
 712              		.loc 1 832 0
 713 000e FFF7FEFF 		bl	UART_rx_wake_ClearInterrupt
 714              	.LVL53:
 837:.\Generated_Source\PSoC4/UART_UART.c ****         UART_RxWakeEnableInt();
 715              		.loc 1 837 0
 716 0012 0320     		mov	r0, #3
 717 0014 FFF7FEFF 		bl	CyIntClearPending
 718              	.LVL54:
 838:.\Generated_Source\PSoC4/UART_UART.c ****     #endif /* (UART_UART_RX_WAKEUP_IRQ) */
 719              		.loc 1 838 0
 720 0018 0320     		mov	r0, #3
 721 001a FFF7FEFF 		bl	CyIntEnable
 722              	.LVL55:
 840:.\Generated_Source\PSoC4/UART_UART.c **** 
 723              		.loc 1 840 0
 724              		@ sp needed
 725 001e 08BD     		pop	{r3, pc}
 726              	.L53:
 727              		.align	2
 728              	.L52:
 729 0020 48002540 		.word	1076166728
 730              		.cfi_endproc
 731              	.LFE16:
 732              		.size	UART_UartSaveConfig, .-UART_UartSaveConfig
 733              		.section	.text.UART_UartRestoreConfig,"ax",%progbits
 734              		.align	2
 735              		.global	UART_UartRestoreConfig
 736              		.code	16
 737              		.thumb_func
 738              		.type	UART_UartRestoreConfig, %function
 739              	UART_UartRestoreConfig:
 740              	.LFB17:
 859:.\Generated_Source\PSoC4/UART_UART.c ****     /* Disable RX GPIO interrupt: no more triggers in active mode */
 741              		.loc 1 859 0
 742              		.cfi_startproc
 743 0000 08B5     		push	{r3, lr}
 744              		.cfi_def_cfa_offset 8
 745              		.cfi_offset 3, -8
 746              		.cfi_offset 14, -4
 862:.\Generated_Source\PSoC4/UART_UART.c ****     #endif /* (UART_UART_RX_WAKEUP_IRQ) */
 747              		.loc 1 862 0
 748 0002 0320     		mov	r0, #3
 749 0004 FFF7FEFF 		bl	CyIntDisable
 750              	.LVL56:
 864:.\Generated_Source\PSoC4/UART_UART.c **** #endif /* (UART_UART_WAKE_ENABLE_CONST) */
 751              		.loc 1 864 0
 752              		@ sp needed
 753 0008 08BD     		pop	{r3, pc}
ARM GAS  C:\Users\Helon\AppData\Local\Temp\ccnwpPdR.s 			page 32


 754              		.cfi_endproc
 755              	.LFE17:
 756              		.size	UART_UartRestoreConfig, .-UART_UartRestoreConfig
 757 000a C046     		.text
 758              	.Letext0:
 759              		.file 2 "Generated_Source\\PSoC4/cytypes.h"
 760              		.file 3 ".\\Generated_Source\\PSoC4\\UART_SPI_UART_PVT.h"
 761              		.file 4 "Generated_Source\\PSoC4/CyLib.h"
 762              		.file 5 ".\\Generated_Source\\PSoC4\\UART_rx_wake.h"
 763              		.file 6 ".\\Generated_Source\\PSoC4\\UART_SPI_UART.h"