ARM GAS  C:\Users\Helon\AppData\Local\Temp\ccHv3m3M.s 			page 1


   1              		.cpu cortex-m0
   2              		.fpu softvfp
   3              		.eabi_attribute 20, 1
   4              		.eabi_attribute 21, 1
   5              		.eabi_attribute 23, 3
   6              		.eabi_attribute 24, 1
   7              		.eabi_attribute 25, 1
   8              		.eabi_attribute 26, 1
   9              		.eabi_attribute 30, 4
  10              		.eabi_attribute 34, 0
  11              		.eabi_attribute 18, 4
  12              		.code	16
  13              		.file	"BLEClient.c"
  14              		.text
  15              	.Ltext0:
  16              		.cfi_sections	.debug_frame
  17              		.section	.text.Parser_adv_data_scan_data,"ax",%progbits
  18              		.align	1
  19              		.global	Parser_adv_data_scan_data
  20              		.code	16
  21              		.thumb_func
  22              		.type	Parser_adv_data_scan_data, %function
  23              	Parser_adv_data_scan_data:
  24              	.LFB38:
  25              		.file 1 "BLEClient.c"
   1:BLEClient.c   **** /* ========================================
   2:BLEClient.c   ****  *
   3:BLEClient.c   ****  * Copyright YOUR COMPANY, THE YEAR
   4:BLEClient.c   ****  * All Rights Reserved
   5:BLEClient.c   ****  * UNPUBLISHED, LICENSED SOFTWARE.
   6:BLEClient.c   ****  *
   7:BLEClient.c   ****  * CONFIDENTIAL AND PROPRIETARY INFORMATION
   8:BLEClient.c   ****  * WHICH IS THE PROPERTY OF your company.
   9:BLEClient.c   ****  *
  10:BLEClient.c   ****  * ========================================
  11:BLEClient.c   **** */
  12:BLEClient.c   **** #include <project.h> 
  13:BLEClient.c   **** #include "BLEClient.h"
  14:BLEClient.c   **** #include "BLEApplication.h"
  15:BLEClient.c   **** #include <stdio.h>
  16:BLEClient.c   **** /***************************************
  17:BLEClient.c   **** * ÂÖ®Â±ÄÂèòÈáè
  18:BLEClient.c   **** ***************************************/
  19:BLEClient.c   **** //uint8_t StartScan=FALSE;
  20:BLEClient.c   **** //uint8_t DeviceList[DeviceListCount]={0};
  21:BLEClient.c   **** CYBLE_DEVICE_INFO DeviceInfo[DeviceListCount];
  22:BLEClient.c   **** //  ËÆ°Êï∞Êâ´ÊèèÂà∞ÁöÑBLEËÆæÂ§á
  23:BLEClient.c   **** uint8_t DeviceCount=0;
  24:BLEClient.c   **** uint8_t flag=0;
  25:BLEClient.c   **** extern CYBLE_GATTC_WRITE_REQ_T writeRequestData;
  26:BLEClient.c   **** extern uint8_t STOP_SCAN_FLAG;
  27:BLEClient.c   **** /******************************************************************************
  28:BLEClient.c   **** * Function Name: HandleScanDevices
  29:BLEClient.c   **** ***************************************************************************//**
  30:BLEClient.c   **** * 
  31:BLEClient.c   **** *  Â§ÑÁêÜÊâ´ÊèèÂà∞ÁöÑÂë®ËæπBLEËÆæÂ§á
  32:BLEClient.c   **** * 
ARM GAS  C:\Users\Helon\AppData\Local\Temp\ccHv3m3M.s 			page 2


  33:BLEClient.c   **** * \return
  34:BLEClient.c   **** *  None
  35:BLEClient.c   **** * 
  36:BLEClient.c   **** ******************************************************************************/
  37:BLEClient.c   **** void HandleScanDevices(CYBLE_GAPC_ADV_REPORT_T* ScanReport)
  38:BLEClient.c   **** {
  39:BLEClient.c   **** //    printf("Advertising or Scan Response Data is 0x%02X%02X%02X%02X%02X%02X\r\n",
  40:BLEClient.c   **** //            );
  41:BLEClient.c   ****     uint8_t i=0;
  42:BLEClient.c   ****     CYBLE_API_RESULT_T API_RESULT=0;
  43:BLEClient.c   **** //    Á¨¨‰∏ÄÊ¨°Êâ´ÊèèÊó∂,‰øùÂ≠òÁ¨¨‰∏ÄÊ¨°Êâ´ÊèèÂà∞ÁöÑËÆæÂ§áÂú∞ÂùÄ
  44:BLEClient.c   ****     if(flag^1)
  45:BLEClient.c   ****     {           
  46:BLEClient.c   ****         flag=1;   
  47:BLEClient.c   ****         if(CYBLE_GAPC_CONN_UNDIRECTED_ADV==ScanReport->eventType)   
  48:BLEClient.c   ****         {
  49:BLEClient.c   ****             DeviceCount++;
  50:BLEClient.c   ****             memcpy(DeviceInfo[DeviceCount-1].DeviceList.bdAddr,ScanReport->peerBdAddr,6);
  51:BLEClient.c   ****             if(CYBLE_GAP_ADDR_TYPE_PUBLIC==ScanReport->peerAddrType)
  52:BLEClient.c   ****             {
  53:BLEClient.c   ****                 DeviceInfo[DeviceCount-1].DeviceList.type=CYBLE_GAP_ADDR_TYPE_PUBLIC;
  54:BLEClient.c   **** //                DeviceInfo[DeviceCount-1].DeviceList.type='P';
  55:BLEClient.c   ****             }
  56:BLEClient.c   ****             else
  57:BLEClient.c   ****             {
  58:BLEClient.c   ****                 DeviceInfo[DeviceCount-1].DeviceList.type=CYBLE_GAP_ADDR_TYPE_RANDOM;
  59:BLEClient.c   **** //                DeviceInfo[DeviceCount-1].DeviceList.type='R';
  60:BLEClient.c   ****             }
  61:BLEClient.c   ****             DeviceInfo[DeviceCount-1].idx=DeviceCount;
  62:BLEClient.c   ****             DeviceInfo[DeviceCount-1].rssi=ScanReport->rssi;
  63:BLEClient.c   ****             memcpy(DeviceInfo[DeviceCount-1].DeviceList.bdAddr,ScanReport->peerBdAddr,6);
  64:BLEClient.c   ****             Parser_adv_data_scan_data(ScanReport->data,ScanReport->dataLen);
  65:BLEClient.c   ****             if(DeviceInfo[DeviceCount-1].ScanName)
  66:BLEClient.c   ****             {
  67:BLEClient.c   ****                 DeviceInfo[DeviceCount-1].ScanName=FALSE;
  68:BLEClient.c   ****             }
  69:BLEClient.c   ****             else
  70:BLEClient.c   ****             {
  71:BLEClient.c   ****                 memset(DeviceInfo[DeviceCount-1].DeviceName,0,sizeof(DeviceInfo[DeviceCount-1].Devi
  72:BLEClient.c   ****                 memcpy(DeviceInfo[DeviceCount-1].DeviceName,"NULL",sizeof("NULL"));
  73:BLEClient.c   ****             }
  74:BLEClient.c   **** //            printf("+SCAN=%d,%d,%c,%02X%02X%02X%02X%02X%02X,%s\r\n",
  75:BLEClient.c   **** //                    DeviceInfo[DeviceCount-1].idx,
  76:BLEClient.c   **** //                    DeviceInfo[DeviceCount-1].rssi,
  77:BLEClient.c   **** //                    PUBLIC_OR_RANDOM(DeviceInfo[DeviceCount-1].DeviceList.type),
  78:BLEClient.c   **** //                    DeviceInfo[DeviceCount-1].DeviceList.bdAddr[5],
  79:BLEClient.c   **** //                    DeviceInfo[DeviceCount-1].DeviceList.bdAddr[4],
  80:BLEClient.c   **** //                    DeviceInfo[DeviceCount-1].DeviceList.bdAddr[3],
  81:BLEClient.c   **** //                    DeviceInfo[DeviceCount-1].DeviceList.bdAddr[2],
  82:BLEClient.c   **** //                    DeviceInfo[DeviceCount-1].DeviceList.bdAddr[1],
  83:BLEClient.c   **** //                    DeviceInfo[DeviceCount-1].DeviceList.bdAddr[0],
  84:BLEClient.c   **** //                    DeviceInfo[DeviceCount-1].DeviceName
  85:BLEClient.c   **** //                    
  86:BLEClient.c   **** //                  );
  87:BLEClient.c   ****             if(0==strncmp((char*)DeviceInfo[DeviceCount-1].DeviceName,"BLEBLE-105",10))//ÊâæÂà∞Ëøô‰
  88:BLEClient.c   ****             {
  89:BLEClient.c   ****                 CyBle_GapcStopScan();   
ARM GAS  C:\Users\Helon\AppData\Local\Temp\ccHv3m3M.s 			page 3


  90:BLEClient.c   **** //                CyDelay(2000);
  91:BLEClient.c   ****                 STOP_SCAN_FLAG=TRUE;
  92:BLEClient.c   **** //                printf("%d\r\n",CyBle_GetState());                             
  93:BLEClient.c   ****             }
  94:BLEClient.c   ****             while((UART_SpiUartGetTxBufferSize() + UART_GET_TX_FIFO_SR_VALID) != 0);//Á≠âÂæÖ‰∏≤Âè£Á
  95:BLEClient.c   ****             return;
  96:BLEClient.c   ****         }
  97:BLEClient.c   ****         
  98:BLEClient.c   ****         
  99:BLEClient.c   ****     }
 100:BLEClient.c   **** //    Âæ™ÁéØÊØîËæÉÊâ´ÊèèÂà∞ÁöÑÂú∞ÂùÄÊòØ‰∏çÊòØ‰πãÂâçÊâ´ÊèèËøáÁöÑ,Â¶ÇÊûúÊúâ‰πãÂâçÊâ´ÊèèËøáÁöÑÂú∞ÂùÄÔº
 101:BLEClient.c   ****     for(i=0;i<DeviceCount;i++)
 102:BLEClient.c   ****     {        
 103:BLEClient.c   ****         if(memcmp(ScanReport->peerBdAddr,DeviceInfo[i].DeviceList.bdAddr,6)==0)
 104:BLEClient.c   ****         {
 105:BLEClient.c   **** //            NewAddr=0;
 106:BLEClient.c   ****             return;
 107:BLEClient.c   ****         }
 108:BLEClient.c   ****     }
 109:BLEClient.c   ****     DeviceCount++;
 110:BLEClient.c   ****     memcpy(DeviceInfo[DeviceCount-1].DeviceList.bdAddr,ScanReport->peerBdAddr,6);
 111:BLEClient.c   ****     if(CYBLE_GAP_ADDR_TYPE_PUBLIC==ScanReport->peerAddrType)
 112:BLEClient.c   ****     {
 113:BLEClient.c   ****         DeviceInfo[DeviceCount-1].DeviceList.type=CYBLE_GAP_ADDR_TYPE_PUBLIC;
 114:BLEClient.c   **** //        DeviceInfo[DeviceCount-1].DeviceList.type='P';
 115:BLEClient.c   ****     }
 116:BLEClient.c   ****     else
 117:BLEClient.c   ****     {
 118:BLEClient.c   ****         DeviceInfo[DeviceCount-1].DeviceList.type=CYBLE_GAP_ADDR_TYPE_RANDOM;
 119:BLEClient.c   **** //        DeviceInfo[DeviceCount-1].DeviceList.type='R';
 120:BLEClient.c   ****     }
 121:BLEClient.c   ****     DeviceInfo[DeviceCount-1].idx=DeviceCount;        
 122:BLEClient.c   ****     if(CYBLE_GAPC_CONN_UNDIRECTED_ADV==ScanReport->eventType)   
 123:BLEClient.c   ****     {
 124:BLEClient.c   ****         DeviceInfo[DeviceCount-1].rssi=ScanReport->rssi;
 125:BLEClient.c   ****         Parser_adv_data_scan_data(ScanReport->data,ScanReport->dataLen);
 126:BLEClient.c   ****         if(DeviceInfo[DeviceCount-1].ScanName)
 127:BLEClient.c   ****             {
 128:BLEClient.c   ****                 DeviceInfo[DeviceCount-1].ScanName=FALSE;
 129:BLEClient.c   ****             }
 130:BLEClient.c   ****             else
 131:BLEClient.c   ****             {
 132:BLEClient.c   ****                 memset(DeviceInfo[DeviceCount-1].DeviceName,0,sizeof(DeviceInfo[DeviceCount-1].Devi
 133:BLEClient.c   ****                 memcpy(DeviceInfo[DeviceCount-1].DeviceName,"NULL",sizeof("NULL"));
 134:BLEClient.c   ****             }
 135:BLEClient.c   **** //            printf("+SCAN=%d,%d,%c,%02X%02X%02X%02X%02X%02X,%s\r\n",
 136:BLEClient.c   **** //                    DeviceInfo[DeviceCount-1].idx,
 137:BLEClient.c   **** //                    DeviceInfo[DeviceCount-1].rssi,
 138:BLEClient.c   **** //                    PUBLIC_OR_RANDOM(DeviceInfo[DeviceCount-1].DeviceList.type),
 139:BLEClient.c   **** //                    DeviceInfo[DeviceCount-1].DeviceList.bdAddr[5],
 140:BLEClient.c   **** //                    DeviceInfo[DeviceCount-1].DeviceList.bdAddr[4],
 141:BLEClient.c   **** //                    DeviceInfo[DeviceCount-1].DeviceList.bdAddr[3],
 142:BLEClient.c   **** //                    DeviceInfo[DeviceCount-1].DeviceList.bdAddr[2],
 143:BLEClient.c   **** //                    DeviceInfo[DeviceCount-1].DeviceList.bdAddr[1],
 144:BLEClient.c   **** //                    DeviceInfo[DeviceCount-1].DeviceList.bdAddr[0],
 145:BLEClient.c   **** //                    DeviceInfo[DeviceCount-1].DeviceName
 146:BLEClient.c   **** //                    
ARM GAS  C:\Users\Helon\AppData\Local\Temp\ccHv3m3M.s 			page 4


 147:BLEClient.c   **** //                  );
 148:BLEClient.c   ****             if(0==strncmp((char*)DeviceInfo[DeviceCount-1].DeviceName,"BLEBLE-105",10))//ÊâæÂà∞Ëøô‰
 149:BLEClient.c   ****             {
 150:BLEClient.c   ****                 CyBle_GapcStopScan();
 151:BLEClient.c   **** //                CyDelay(2000);
 152:BLEClient.c   ****                 STOP_SCAN_FLAG=TRUE;
 153:BLEClient.c   **** //                 printf("%d\r\n",CyBle_GetState());                
 154:BLEClient.c   **** //                CyDelayUs(500);
 155:BLEClient.c   **** //                printf("%d",CyBle_GetState());
 156:BLEClient.c   ****                 
 157:BLEClient.c   ****             }
 158:BLEClient.c   ****             while((UART_SpiUartGetTxBufferSize() + UART_GET_TX_FIFO_SR_VALID) != 0);//Á≠âÂæÖ‰∏≤Âè£Á
 159:BLEClient.c   ****     }
 160:BLEClient.c   ****     
 161:BLEClient.c   **** }
 162:BLEClient.c   **** 
 163:BLEClient.c   **** /******************************************************************************
 164:BLEClient.c   **** * Function Name: Parser_adv_data_scan_data
 165:BLEClient.c   **** ***************************************************************************//**
 166:BLEClient.c   **** * 
 167:BLEClient.c   **** *  Ëß£ÊûêÁ©∫‰∏≠ÂπøÊí≠Êï∞ÊçÆÊàñËÄÖÊâ´ÊèèÂìçÂ∫îÊï∞ÊçÆ
 168:BLEClient.c   **** * \param  pdata:ÊåáÂêëÁ©∫‰∏≠ÂπøÊí≠Êï∞ÊçÆÊàñËÄÖÊâ´ÊèèÂìçÂ∫îÊï∞ÊçÆÁöÑÊåáÈíà
 169:BLEClient.c   **** * \param  total_len:Á©∫‰∏≠ÂπøÊí≠Êï∞ÊçÆÊàñËÄÖÊâ´ÊèèÂìçÂ∫îÊï∞ÊçÆÁöÑÈïøÂ∫¶
 170:BLEClient.c   **** * \return
 171:BLEClient.c   **** *  None
 172:BLEClient.c   **** * 
 173:BLEClient.c   **** ******************************************************************************/
 174:BLEClient.c   **** void Parser_adv_data_scan_data(uint8_t *pdata, uint8_t total_len)
 175:BLEClient.c   **** {
  26              		.loc 1 175 0
  27              		.cfi_startproc
  28              	.LVL0:
  29 0000 F7B5     		push	{r0, r1, r2, r4, r5, r6, r7, lr}
  30              		.cfi_def_cfa_offset 32
  31              		.cfi_offset 0, -32
  32              		.cfi_offset 1, -28
  33              		.cfi_offset 2, -24
  34              		.cfi_offset 4, -20
  35              		.cfi_offset 5, -16
  36              		.cfi_offset 6, -12
  37              		.cfi_offset 7, -8
  38              		.cfi_offset 14, -4
 176:BLEClient.c   ****     uint8_t* pend=pdata+total_len;
  39              		.loc 1 176 0
  40 0002 4318     		add	r3, r0, r1
  41 0004 0193     		str	r3, [sp, #4]
  42              	.LVL1:
 177:BLEClient.c   ****     uint8_t length=0;
  43              		.loc 1 177 0
  44 0006 0023     		mov	r3, #0
  45              	.LVL2:
 178:BLEClient.c   ****     uint8_t i,ServiceCount;
 179:BLEClient.c   ****     pdata++;
  46              		.loc 1 179 0
  47 0008 441C     		add	r4, r0, #1
  48              	.LVL3:
  49              	.L2:
ARM GAS  C:\Users\Helon\AppData\Local\Temp\ccHv3m3M.s 			page 5


 180:BLEClient.c   ****     while(pend>pdata)
  50              		.loc 1 180 0
  51 000a 019A     		ldr	r2, [sp, #4]
  52 000c A242     		cmp	r2, r4
  53 000e 40D9     		bls	.L15
 181:BLEClient.c   ****     {
 182:BLEClient.c   **** //      pdata-1Ë°®Á§∫ÁöÑÊòØÂØπÂ∫îÂÜÖÂÆπÁöÑÈïøÂ∫¶Ôºåpdata+1Ë°®Á§∫ÁöÑÊòØÂØπÂ∫îÁöÑÂÜÖÂÆπ
 183:BLEClient.c   ****         switch(*pdata)
  54              		.loc 1 183 0
  55 0010 2078     		ldrb	r0, [r4]
  56 0012 0138     		sub	r0, r0, #1
  57 0014 0928     		cmp	r0, #9
  58 0016 3AD8     		bhi	.L3
  59 0018 FFF7FEFF 		bl	__gnu_thumb1_case_uqi
  60              	.L5:
  61 001c 35       		.byte	(.L10-.L5)/2
  62 001d 35       		.byte	(.L10-.L5)/2
  63 001e 35       		.byte	(.L10-.L5)/2
  64 001f 39       		.byte	(.L3-.L5)/2
  65 0020 39       		.byte	(.L3-.L5)/2
  66 0021 39       		.byte	(.L3-.L5)/2
  67 0022 39       		.byte	(.L3-.L5)/2
  68 0023 05       		.byte	(.L8-.L5)/2
  69 0024 1B       		.byte	(.L9-.L5)/2
  70 0025 35       		.byte	(.L10-.L5)/2
  71              		.p2align 1
  72              	.L8:
 184:BLEClient.c   ****         {
 185:BLEClient.c   ****             case CYBLE_GAP_ADV_FLAGS:
 186:BLEClient.c   **** //                printf("Flags is %d\r\n",*(pdata+1));
 187:BLEClient.c   ****                 length=1+*(pdata-1);
 188:BLEClient.c   ****             break;
 189:BLEClient.c   ****             //ÊØîÂ¶ÇÊúâÂá†‰∏™ÊúçÂä°ÔºåÈÇ£‰πàÂ∞±ÊúâÂá†‰∏™ÊúçÂä°ÁöÑUUIDÔºå
 190:BLEClient.c   ****             //ÂπøÊí≠‰∏≠Âè™Ë¶ÅÊ≤°ÊúâÊääÂÖ®ÈÉ®ÁöÑÊúçÂä°UUIDÔºåÂ∞±ÊòØCYBLE_GAP_ADV_INCOMPL_16UUID
 191:BLEClient.c   ****             case CYBLE_GAP_ADV_INCOMPL_16UUID:
 192:BLEClient.c   **** //          ÊúçÂä°IDÁöÑÊï∞Èáè
 193:BLEClient.c   ****                 ServiceCount=(*(pdata-1)-1)/2;
 194:BLEClient.c   ****                 for(i=0;i<ServiceCount;i++)
 195:BLEClient.c   ****                 {                
 196:BLEClient.c   ****                     switch(i)
 197:BLEClient.c   ****                     {
 198:BLEClient.c   ****                         case 0:
 199:BLEClient.c   **** //                            printf("Service1 ID is: 0x%02X%02X\r\n",*(pdata+i+2),*(pdata+i+1));
 200:BLEClient.c   ****                         break;                       
 201:BLEClient.c   ****                         case 1:
 202:BLEClient.c   **** //                            printf("Service2 ID is: 0x%02X%02X\r\n",*(pdata+i+3),*(pdata+i+2));
 203:BLEClient.c   ****                         break;                    
 204:BLEClient.c   ****                         case 2:
 205:BLEClient.c   **** //                            printf("Service3 ID is: 0x%02X%02X\r\n",*(pdata+i+4),*(pdata+i+3));
 206:BLEClient.c   ****                         break;
 207:BLEClient.c   ****                         case 3:
 208:BLEClient.c   **** //                            printf("Service4 ID is: 0x%02X%02X\r\n",*(pdata+i+5),*(pdata+i+4));
 209:BLEClient.c   ****                         break;
 210:BLEClient.c   ****                         case 4:
 211:BLEClient.c   **** //                            printf("Service5 ID is: 0x%02X%02X\r\n",*(pdata+i+6),*(pdata+i+5));
 212:BLEClient.c   ****                         break;
 213:BLEClient.c   ****                         case 5:
ARM GAS  C:\Users\Helon\AppData\Local\Temp\ccHv3m3M.s 			page 6


 214:BLEClient.c   **** //                            printf("Service6 ID is: 0x%02X%02X\r\n",*(pdata+i+7),*(pdata+i+6));
 215:BLEClient.c   ****                         break;
 216:BLEClient.c   ****                         case 6:
 217:BLEClient.c   **** //                            printf("Service7 ID is: 0x%02X%02X\r\n",*(pdata+i+8),*(pdata+i+7));
 218:BLEClient.c   ****                         break;
 219:BLEClient.c   ****                         case 7:
 220:BLEClient.c   **** //                            printf("Service8 ID is: 0x%02X%02X\r\n",*(pdata+i+9),*(pdata+i+8));
 221:BLEClient.c   ****                         break;
 222:BLEClient.c   ****                         case 8:
 223:BLEClient.c   **** //                            printf("Service9 ID is: 0x%02X%02X\r\n",*(pdata+i+10),*(pdata+i+9));
 224:BLEClient.c   ****                         break;
 225:BLEClient.c   ****                         case 9:
 226:BLEClient.c   **** //                            printf("Service10 ID is: 0x%02X%02X\r\n",*(pdata+i+11),*(pdata+i+10))
 227:BLEClient.c   ****                         break;
 228:BLEClient.c   ****                         default:
 229:BLEClient.c   ****                         break;
 230:BLEClient.c   ****                     }
 231:BLEClient.c   ****                 }
 232:BLEClient.c   ****                 length=1+*(pdata-1);
 233:BLEClient.c   ****             break;
 234:BLEClient.c   ****             case CYBLE_GAP_ADV_COMPL_16UUID:
 235:BLEClient.c   ****                 ServiceCount=(*(pdata-1)-1)/2;
 236:BLEClient.c   ****                 for(i=0;i<ServiceCount;i++)
 237:BLEClient.c   ****                 {                
 238:BLEClient.c   ****                     switch(i)
 239:BLEClient.c   ****                     {
 240:BLEClient.c   ****                         case 0:
 241:BLEClient.c   **** //                            printf("Service1 ID is: 0x%02X%02X\r\n",*(pdata+i+2),*(pdata+i+1));
 242:BLEClient.c   ****                         break;                       
 243:BLEClient.c   ****                         case 1:
 244:BLEClient.c   **** //                            printf("Service2 ID is: 0x%02X%02X\r\n",*(pdata+i+3),*(pdata+i+2));
 245:BLEClient.c   ****                         break;                    
 246:BLEClient.c   ****                         case 2:
 247:BLEClient.c   **** //                            printf("Service3 ID is: 0x%02X%02X\r\n",*(pdata+i+4),*(pdata+i+3));
 248:BLEClient.c   ****                         break;
 249:BLEClient.c   ****                         case 3:
 250:BLEClient.c   **** //                            printf("Service4 ID is: 0x%02X%02X\r\n",*(pdata+i+5),*(pdata+i+4));
 251:BLEClient.c   ****                         break;
 252:BLEClient.c   ****                         case 4:
 253:BLEClient.c   **** //                            printf("Service5 ID is: 0x%02X%02X\r\n",*(pdata+i+6),*(pdata+i+5));
 254:BLEClient.c   ****                         break;
 255:BLEClient.c   ****                         case 5:
 256:BLEClient.c   **** //                            printf("Service6 ID is: 0x%02X%02X\r\n",*(pdata+i+7),*(pdata+i+6));
 257:BLEClient.c   ****                         break;
 258:BLEClient.c   ****                         case 6:
 259:BLEClient.c   **** //                            printf("Service7 ID is: 0x%02X%02X\r\n",*(pdata+i+8),*(pdata+i+7));
 260:BLEClient.c   ****                         break;
 261:BLEClient.c   ****                         case 7:
 262:BLEClient.c   **** //                            printf("Service8 ID is: 0x%02X%02X\r\n",*(pdata+i+9),*(pdata+i+8));
 263:BLEClient.c   ****                         break;
 264:BLEClient.c   ****                         case 8:
 265:BLEClient.c   **** //                            printf("Service9 ID is: 0x%02X%02X\r\n",*(pdata+i+10),*(pdata+i+9));
 266:BLEClient.c   ****                         break;
 267:BLEClient.c   ****                         case 9:
 268:BLEClient.c   **** //                            printf("Service10 ID is: 0x%02X%02X\r\n",*(pdata+i+11),*(pdata+i+10))
 269:BLEClient.c   ****                         break;
 270:BLEClient.c   ****                         default:
ARM GAS  C:\Users\Helon\AppData\Local\Temp\ccHv3m3M.s 			page 7


 271:BLEClient.c   ****                         break;
 272:BLEClient.c   ****                     }
 273:BLEClient.c   ****                 }
 274:BLEClient.c   ****                 length=1+*(pdata-1);
 275:BLEClient.c   ****             break;           
 276:BLEClient.c   ****             case CYBLE_GAP_ADV_INCOMPL_32_UUID:
 277:BLEClient.c   ****                 
 278:BLEClient.c   ****             break;
 279:BLEClient.c   ****             case CYBLE_GAP_ADV_COMPL_32_UUID:
 280:BLEClient.c   ****             
 281:BLEClient.c   ****             break;
 282:BLEClient.c   ****             case CYBLE_GAP_ADV_INCOMPL_128_UUID:
 283:BLEClient.c   ****             
 284:BLEClient.c   ****             break;
 285:BLEClient.c   ****             case CYBLE_GAP_ADV_COMPL_128_UUID:
 286:BLEClient.c   ****             
 287:BLEClient.c   ****             break;  
 288:BLEClient.c   ****             case CYBLE_GAP_ADV_SHORT_NAME:
 289:BLEClient.c   ****                 //ÊèêÂâçÂàùÂßãÂåñDeviceNameÊåáÈíàÁöÑÂâçÈù¢20‰∏™Byte
 290:BLEClient.c   ****                 memset(DeviceInfo[DeviceCount-1].DeviceName,0,sizeof(DeviceInfo[DeviceCount-1].Devi
  73              		.loc 1 290 0
  74 0026 1B4B     		ldr	r3, .L16
  75              	.LVL4:
  76 0028 0021     		mov	r1, #0
  77 002a 1D78     		ldrb	r5, [r3]
  78 002c 1E23     		mov	r3, #30
  79 002e 013D     		sub	r5, r5, #1
  80 0030 5D43     		mul	r5, r3
  81 0032 194B     		ldr	r3, .L16+4
  82 0034 1422     		mov	r2, #20
  83 0036 5D19     		add	r5, r3, r5
  84 0038 0935     		add	r5, r5, #9
 291:BLEClient.c   **** //                memcpy(DeviceName,(pdata+1),*(pdata-1)-1);
 292:BLEClient.c   **** //                printf("Shortened Local Name is: %s\r\n",DeviceName);
 293:BLEClient.c   **** //                printf("%s>\r\n",DeviceName);
 294:BLEClient.c   ****                 memcpy(DeviceInfo[DeviceCount-1].DeviceName,(pdata+1),*(pdata-1)-1);
  85              		.loc 1 294 0
  86 003a 661E     		sub	r6, r4, #1
 290:BLEClient.c   **** //                memcpy(DeviceName,(pdata+1),*(pdata-1)-1);
  87              		.loc 1 290 0
  88 003c 281C     		mov	r0, r5
  89 003e FFF7FEFF 		bl	memset
  90              	.LVL5:
  91              		.loc 1 294 0
  92 0042 3278     		ldrb	r2, [r6]
  93 0044 611C     		add	r1, r4, #1
  94 0046 013A     		sub	r2, r2, #1
  95 0048 281C     		mov	r0, r5
  96 004a FFF7FEFF 		bl	memcpy
  97              	.LVL6:
 295:BLEClient.c   ****                 length=1+*(pdata-1);
  98              		.loc 1 295 0
  99 004e 3378     		ldrb	r3, [r6]
 100 0050 1BE0     		b	.L13
 101              	.LVL7:
 102              	.L9:
 296:BLEClient.c   ****             break;
ARM GAS  C:\Users\Helon\AppData\Local\Temp\ccHv3m3M.s 			page 8


 297:BLEClient.c   ****             case CYBLE_GAP_ADV_COMPL_NAME:
 298:BLEClient.c   ****                 //ÊèêÂâçÂàùÂßãÂåñDeviceNameÊåáÈíàÁöÑÂâçÈù¢20‰∏™Byte
 299:BLEClient.c   ****                 memset(DeviceInfo[DeviceCount-1].DeviceName,0,sizeof(DeviceInfo[DeviceCount-1].Devi
 103              		.loc 1 299 0
 104 0052 104B     		ldr	r3, .L16
 105              	.LVL8:
 106 0054 104F     		ldr	r7, .L16+4
 107 0056 1D78     		ldrb	r5, [r3]
 108 0058 1E23     		mov	r3, #30
 109 005a 013D     		sub	r5, r5, #1
 110 005c 5D43     		mul	r5, r3
 111 005e 7E19     		add	r6, r7, r5
 112 0060 0936     		add	r6, r6, #9
 113 0062 0021     		mov	r1, #0
 114 0064 1422     		mov	r2, #20
 115 0066 301C     		mov	r0, r6
 116 0068 FFF7FEFF 		bl	memset
 117              	.LVL9:
 300:BLEClient.c   **** //                memcpy(DeviceName,(pdata+1),*(pdata-1)-1);
 301:BLEClient.c   ****                 memcpy(DeviceInfo[DeviceCount-1].DeviceName,(pdata+1),*(pdata-1)-1);
 118              		.loc 1 301 0
 119 006c 631E     		sub	r3, r4, #1
 120 006e 1A78     		ldrb	r2, [r3]
 121 0070 611C     		add	r1, r4, #1
 122 0072 013A     		sub	r2, r2, #1
 123 0074 301C     		mov	r0, r6
 124 0076 0093     		str	r3, [sp]
 125 0078 FFF7FEFF 		bl	memcpy
 126              	.LVL10:
 302:BLEClient.c   ****                 DeviceInfo[DeviceCount-1].ScanName=TRUE;
 127              		.loc 1 302 0
 128 007c 0123     		mov	r3, #1
 129 007e 7D19     		add	r5, r7, r5
 130 0080 6B77     		strb	r3, [r5, #29]
 303:BLEClient.c   **** //                printf("Complete Local Name is: %s\r\n",DeviceInfo[DeviceCount-1].DeviceName);   
 304:BLEClient.c   **** //                printf("%s>\r\n",DeviceName);
 305:BLEClient.c   ****                 length=1+*(pdata-1);
 131              		.loc 1 305 0
 132 0082 009B     		ldr	r3, [sp]
 133 0084 00E0     		b	.L12
 134              	.LVL11:
 135              	.L10:
 306:BLEClient.c   ****             break;
 307:BLEClient.c   ****             case CYBLE_GAP_ADV_TX_PWR_LVL:
 308:BLEClient.c   **** //                printf("Tx Power Level is: %ddbm\r\n",*(pdata+1));
 309:BLEClient.c   ****                 length=1+*(pdata-1);
 136              		.loc 1 309 0
 137 0086 631E     		sub	r3, r4, #1
 138              	.LVL12:
 139              	.L12:
 140 0088 1B78     		ldrb	r3, [r3]
 141              	.L13:
 142 008a 0133     		add	r3, r3, #1
 143 008c DBB2     		uxtb	r3, r3
 144              	.LVL13:
 145              	.L3:
 310:BLEClient.c   ****             break;
ARM GAS  C:\Users\Helon\AppData\Local\Temp\ccHv3m3M.s 			page 9


 311:BLEClient.c   ****             case CYBLE_GAP_ADV_CLASS_OF_DEVICE:
 312:BLEClient.c   ****                 
 313:BLEClient.c   ****             break;
 314:BLEClient.c   ****             
 315:BLEClient.c   ****             case CYBLE_GAP_ADV_SMPL_PAIR_HASH_C:
 316:BLEClient.c   ****                 
 317:BLEClient.c   ****             break;
 318:BLEClient.c   ****             case CYBLE_GAP_ADV_SMPL_PAIR_RANDOM_R:
 319:BLEClient.c   ****                 
 320:BLEClient.c   ****             break;     
 321:BLEClient.c   ****             //CYBLE_GAP_ADV_SCRT_MNGR_TK_VALÁöÑÊûö‰∏æÂÄº
 322:BLEClient.c   ****             //Ë∑üCYBLE_GAP_ADV_DEVICE_IDÁõ∏Âêå    
 323:BLEClient.c   ****             case CYBLE_GAP_ADV_DEVICE_ID:
 324:BLEClient.c   ****                 
 325:BLEClient.c   ****             break;
 326:BLEClient.c   ****             case CYBLE_GAP_ADV_SCRT_MNGR_OOB_FLAGS:
 327:BLEClient.c   ****                 
 328:BLEClient.c   ****             break;   
 329:BLEClient.c   ****             case CYBLE_GAP_ADV_SLAVE_CONN_INTRV_RANGE:
 330:BLEClient.c   ****                 
 331:BLEClient.c   ****             break;    
 332:BLEClient.c   ****             case CYBLE_GAP_ADV_SOLICIT_16UUID:
 333:BLEClient.c   ****                 
 334:BLEClient.c   ****             break;     
 335:BLEClient.c   ****             case CYBLE_GAP_ADV_SOLICIT_128UUID:
 336:BLEClient.c   ****                 
 337:BLEClient.c   ****             break; 
 338:BLEClient.c   ****             case CYBLE_GAP_ADV_SRVC_DATA_16UUID:
 339:BLEClient.c   ****                 
 340:BLEClient.c   ****             break;    
 341:BLEClient.c   ****             case CYBLE_GAP_ADV_PUBLIC_TARGET_ADDR:
 342:BLEClient.c   ****                 
 343:BLEClient.c   ****             break;  
 344:BLEClient.c   ****             case CYBLE_GAP_ADV_RANDOM_TARGET_ADDR:
 345:BLEClient.c   ****                 
 346:BLEClient.c   ****             break;    
 347:BLEClient.c   ****             case CYBLE_GAP_ADV_APPEARANCE:
 348:BLEClient.c   ****                 
 349:BLEClient.c   ****             break;     
 350:BLEClient.c   ****             case CYBLE_GAP_ADV_ADVERT_INTERVAL:
 351:BLEClient.c   ****                 
 352:BLEClient.c   ****             break;   
 353:BLEClient.c   ****             case CYBLE_GAP_ADV_LE_BT_DEVICE_ADDR:
 354:BLEClient.c   ****                 
 355:BLEClient.c   ****             break;
 356:BLEClient.c   ****             case CYBLE_GAP_ADV_LE_ROLE:
 357:BLEClient.c   ****                 
 358:BLEClient.c   ****             break;
 359:BLEClient.c   ****             case CYBLE_GAP_ADV_SMPL_PAIR_HASH_C256:
 360:BLEClient.c   ****                 
 361:BLEClient.c   ****             break;
 362:BLEClient.c   ****             case CYBLE_GAP_ADV_SMPL_PAIR_RANDOM_R256:
 363:BLEClient.c   ****                 
 364:BLEClient.c   ****             break;
 365:BLEClient.c   ****             case CYBLE_GAP_ADV_SOLICIT_32UUID:
 366:BLEClient.c   ****                 
 367:BLEClient.c   ****             break;  
ARM GAS  C:\Users\Helon\AppData\Local\Temp\ccHv3m3M.s 			page 10


 368:BLEClient.c   ****             case CYBLE_GAP_ADV_SRVC_DATA_32UUID:
 369:BLEClient.c   ****                 
 370:BLEClient.c   ****             break;
 371:BLEClient.c   ****             case CYBLE_GAP_ADV_SRVC_DATA_128UUID:
 372:BLEClient.c   ****                 
 373:BLEClient.c   ****             break;
 374:BLEClient.c   ****             case CYBLE_GAP_ADV_3D_INFO_DATA:
 375:BLEClient.c   ****                 
 376:BLEClient.c   ****             break;
 377:BLEClient.c   ****             default:                
 378:BLEClient.c   ****             break;
 379:BLEClient.c   ****                 
 380:BLEClient.c   ****         }
 381:BLEClient.c   ****         pdata+=length;
 146              		.loc 1 381 0
 147 008e E418     		add	r4, r4, r3
 148              	.LVL14:
 149 0090 BBE7     		b	.L2
 150              	.L15:
 382:BLEClient.c   ****     }    
 383:BLEClient.c   **** //    printf("<%d,",DeviceCount);
 384:BLEClient.c   **** }
 151              		.loc 1 384 0
 152              		@ sp needed
 153              	.LVL15:
 154 0092 F7BD     		pop	{r0, r1, r2, r4, r5, r6, r7, pc}
 155              	.L17:
 156              		.align	2
 157              	.L16:
 158 0094 00000000 		.word	.LANCHOR0
 159 0098 00000000 		.word	DeviceInfo
 160              		.cfi_endproc
 161              	.LFE38:
 162              		.size	Parser_adv_data_scan_data, .-Parser_adv_data_scan_data
 163              		.section	.text.HandleScanDevices,"ax",%progbits
 164              		.align	1
 165              		.global	HandleScanDevices
 166              		.code	16
 167              		.thumb_func
 168              		.type	HandleScanDevices, %function
 169              	HandleScanDevices:
 170              	.LFB37:
  38:BLEClient.c   **** //    printf("Advertising or Scan Response Data is 0x%02X%02X%02X%02X%02X%02X\r\n",
 171              		.loc 1 38 0
 172              		.cfi_startproc
 173              	.LVL16:
 174 0000 F7B5     		push	{r0, r1, r2, r4, r5, r6, r7, lr}
 175              		.cfi_def_cfa_offset 32
 176              		.cfi_offset 0, -32
 177              		.cfi_offset 1, -28
 178              		.cfi_offset 2, -24
 179              		.cfi_offset 4, -20
 180              		.cfi_offset 5, -16
 181              		.cfi_offset 6, -12
 182              		.cfi_offset 7, -8
 183              		.cfi_offset 14, -4
  44:BLEClient.c   ****     {           
ARM GAS  C:\Users\Helon\AppData\Local\Temp\ccHv3m3M.s 			page 11


 184              		.loc 1 44 0
 185 0002 644B     		ldr	r3, .L44
  38:BLEClient.c   **** //    printf("Advertising or Scan Response Data is 0x%02X%02X%02X%02X%02X%02X\r\n",
 186              		.loc 1 38 0
 187 0004 041C     		mov	r4, r0
  44:BLEClient.c   ****     {           
 188              		.loc 1 44 0
 189 0006 5A78     		ldrb	r2, [r3, #1]
 190 0008 0093     		str	r3, [sp]
 191 000a 012A     		cmp	r2, #1
 192 000c 5BD0     		beq	.L19
  46:BLEClient.c   ****         if(CYBLE_GAPC_CONN_UNDIRECTED_ADV==ScanReport->eventType)   
 193              		.loc 1 46 0
 194 000e 0123     		mov	r3, #1
 195 0010 009A     		ldr	r2, [sp]
 196 0012 5370     		strb	r3, [r2, #1]
  47:BLEClient.c   ****         {
 197              		.loc 1 47 0
 198 0014 0378     		ldrb	r3, [r0]
 199 0016 002B     		cmp	r3, #0
 200 0018 55D1     		bne	.L19
  49:BLEClient.c   ****             memcpy(DeviceInfo[DeviceCount-1].DeviceList.bdAddr,ScanReport->peerBdAddr,6);
 201              		.loc 1 49 0
 202 001a 1778     		ldrb	r7, [r2]
  50:BLEClient.c   ****             if(CYBLE_GAP_ADDR_TYPE_PUBLIC==ScanReport->peerAddrType)
 203              		.loc 1 50 0
 204 001c 1E25     		mov	r5, #30
  49:BLEClient.c   ****             memcpy(DeviceInfo[DeviceCount-1].DeviceList.bdAddr,ScanReport->peerBdAddr,6);
 205              		.loc 1 49 0
 206 001e 0137     		add	r7, r7, #1
 207 0020 FFB2     		uxtb	r7, r7
  50:BLEClient.c   ****             if(CYBLE_GAP_ADDR_TYPE_PUBLIC==ScanReport->peerAddrType)
 208              		.loc 1 50 0
 209 0022 7B1E     		sub	r3, r7, #1
 210 0024 1E1C     		mov	r6, r3
 211 0026 6E43     		mul	r6, r5
 212 0028 0193     		str	r3, [sp, #4]
 213 002a 5B4B     		ldr	r3, .L44+4
  49:BLEClient.c   ****             memcpy(DeviceInfo[DeviceCount-1].DeviceList.bdAddr,ScanReport->peerBdAddr,6);
 214              		.loc 1 49 0
 215 002c 1770     		strb	r7, [r2]
  50:BLEClient.c   ****             if(CYBLE_GAP_ADDR_TYPE_PUBLIC==ScanReport->peerAddrType)
 216              		.loc 1 50 0
 217 002e 9E19     		add	r6, r3, r6
 218 0030 301C     		mov	r0, r6
 219              	.LVL17:
 220 0032 6168     		ldr	r1, [r4, #4]
 221 0034 0622     		mov	r2, #6
 222 0036 FFF7FEFF 		bl	memcpy
 223              	.LVL18:
  51:BLEClient.c   ****             {
 224              		.loc 1 51 0
 225 003a 6378     		ldrb	r3, [r4, #1]
 226 003c 002B     		cmp	r3, #0
 227 003e 00D0     		beq	.L41
  58:BLEClient.c   **** //                DeviceInfo[DeviceCount-1].DeviceList.type='R';
 228              		.loc 1 58 0
ARM GAS  C:\Users\Helon\AppData\Local\Temp\ccHv3m3M.s 			page 12


 229 0040 0123     		mov	r3, #1
 230              	.L41:
  61:BLEClient.c   ****             DeviceInfo[DeviceCount-1].rssi=ScanReport->rssi;
 231              		.loc 1 61 0
 232 0042 0198     		ldr	r0, [sp, #4]
  58:BLEClient.c   **** //                DeviceInfo[DeviceCount-1].DeviceList.type='R';
 233              		.loc 1 58 0
 234 0044 B371     		strb	r3, [r6, #6]
  61:BLEClient.c   ****             DeviceInfo[DeviceCount-1].rssi=ScanReport->rssi;
 235              		.loc 1 61 0
 236 0046 6843     		mul	r0, r5
 237 0048 534B     		ldr	r3, .L44+4
  63:BLEClient.c   ****             Parser_adv_data_scan_data(ScanReport->data,ScanReport->dataLen);
 238              		.loc 1 63 0
 239 004a 0622     		mov	r2, #6
  61:BLEClient.c   ****             DeviceInfo[DeviceCount-1].rssi=ScanReport->rssi;
 240              		.loc 1 61 0
 241 004c 1818     		add	r0, r3, r0
 242 004e C771     		strb	r7, [r0, #7]
  62:BLEClient.c   ****             memcpy(DeviceInfo[DeviceCount-1].DeviceList.bdAddr,ScanReport->peerBdAddr,6);
 243              		.loc 1 62 0
 244 0050 237C     		ldrb	r3, [r4, #16]
 245 0052 0372     		strb	r3, [r0, #8]
  63:BLEClient.c   ****             Parser_adv_data_scan_data(ScanReport->data,ScanReport->dataLen);
 246              		.loc 1 63 0
 247 0054 6168     		ldr	r1, [r4, #4]
 248 0056 FFF7FEFF 		bl	memcpy
 249              	.LVL19:
  64:BLEClient.c   ****             if(DeviceInfo[DeviceCount-1].ScanName)
 250              		.loc 1 64 0
 251 005a 217A     		ldrb	r1, [r4, #8]
 252 005c E068     		ldr	r0, [r4, #12]
 253 005e FFF7FEFF 		bl	Parser_adv_data_scan_data
 254              	.LVL20:
  65:BLEClient.c   ****             {
 255              		.loc 1 65 0
 256 0062 009B     		ldr	r3, [sp]
 257 0064 1C78     		ldrb	r4, [r3]
 258              	.LVL21:
 259 0066 4C4B     		ldr	r3, .L44+4
 260 0068 013C     		sub	r4, r4, #1
 261 006a 6543     		mul	r5, r4
 262 006c 5B19     		add	r3, r3, r5
 263 006e 597F     		ldrb	r1, [r3, #29]
 264 0070 1833     		add	r3, r3, #24
 265 0072 0029     		cmp	r1, #0
 266 0074 02D0     		beq	.L22
  67:BLEClient.c   ****             }
 267              		.loc 1 67 0
 268 0076 0022     		mov	r2, #0
 269 0078 5A71     		strb	r2, [r3, #5]
 270 007a 0BE0     		b	.L23
 271              	.L22:
  71:BLEClient.c   ****                 memcpy(DeviceInfo[DeviceCount-1].DeviceName,"NULL",sizeof("NULL"));
 272              		.loc 1 71 0
 273 007c 464B     		ldr	r3, .L44+4
 274 007e 1422     		mov	r2, #20
ARM GAS  C:\Users\Helon\AppData\Local\Temp\ccHv3m3M.s 			page 13


 275 0080 5D19     		add	r5, r3, r5
 276 0082 0935     		add	r5, r5, #9
 277 0084 281C     		mov	r0, r5
 278 0086 FFF7FEFF 		bl	memset
 279              	.LVL22:
  72:BLEClient.c   ****             }
 280              		.loc 1 72 0
 281 008a 281C     		mov	r0, r5
 282 008c 4349     		ldr	r1, .L44+8
 283 008e 0522     		mov	r2, #5
 284 0090 FFF7FEFF 		bl	memcpy
 285              	.LVL23:
 286              	.L23:
  87:BLEClient.c   ****             {
 287              		.loc 1 87 0
 288 0094 1E20     		mov	r0, #30
 289 0096 4443     		mul	r4, r0
 290 0098 3F4B     		ldr	r3, .L44+4
 291 009a 4149     		ldr	r1, .L44+12
 292 009c 1819     		add	r0, r3, r4
 293 009e 0930     		add	r0, r0, #9
 294 00a0 0A22     		mov	r2, #10
 295 00a2 FFF7FEFF 		bl	strncmp
 296              	.LVL24:
 297 00a6 0028     		cmp	r0, #0
 298 00a8 04D1     		bne	.L25
  89:BLEClient.c   **** //                CyDelay(2000);
 299              		.loc 1 89 0
 300 00aa FFF7FEFF 		bl	CyBle_GapcStopScan
 301              	.LVL25:
  91:BLEClient.c   **** //                printf("%d\r\n",CyBle_GetState());                             
 302              		.loc 1 91 0
 303 00ae 0122     		mov	r2, #1
 304 00b0 3C4B     		ldr	r3, .L44+16
 305 00b2 1A70     		strb	r2, [r3]
 306              	.L25:
  94:BLEClient.c   ****             return;
 307              		.loc 1 94 0 discriminator 5
 308 00b4 FFF7FEFF 		bl	UART_SpiUartGetTxBufferSize
 309              	.LVL26:
 310 00b8 3B4B     		ldr	r3, .L44+20
 311 00ba 1B68     		ldr	r3, [r3]
 312 00bc 1B04     		lsl	r3, r3, #16
 313 00be DB17     		asr	r3, r3, #31
 314 00c0 8342     		cmp	r3, r0
 315 00c2 F7D1     		bne	.L25
 316 00c4 64E0     		b	.L18
 317              	.LVL27:
 318              	.L19:
 319 00c6 1E26     		mov	r6, #30
 101:BLEClient.c   ****     {        
 320              		.loc 1 101 0
 321 00c8 009B     		ldr	r3, [sp]
 322 00ca 334F     		ldr	r7, .L44+4
 323 00cc 1D78     		ldrb	r5, [r3]
 324 00ce 6E43     		mul	r6, r5
 325 00d0 F619     		add	r6, r6, r7
ARM GAS  C:\Users\Helon\AppData\Local\Temp\ccHv3m3M.s 			page 14


 326              	.LVL28:
 327              	.L26:
 101:BLEClient.c   ****     {        
 328              		.loc 1 101 0 is_stmt 0 discriminator 1
 329 00d2 B742     		cmp	r7, r6
 330 00d4 08D0     		beq	.L43
 103:BLEClient.c   ****         {
 331              		.loc 1 103 0 is_stmt 1
 332 00d6 391C     		mov	r1, r7
 333 00d8 6068     		ldr	r0, [r4, #4]
 334 00da 0622     		mov	r2, #6
 335 00dc FFF7FEFF 		bl	memcmp
 336              	.LVL29:
 337 00e0 1E37     		add	r7, r7, #30
 338 00e2 0028     		cmp	r0, #0
 339 00e4 F5D1     		bne	.L26
 340 00e6 53E0     		b	.L18
 341              	.L43:
 109:BLEClient.c   ****     memcpy(DeviceInfo[DeviceCount-1].DeviceList.bdAddr,ScanReport->peerBdAddr,6);
 342              		.loc 1 109 0
 343 00e8 009B     		ldr	r3, [sp]
 344 00ea 0135     		add	r5, r5, #1
 345 00ec EDB2     		uxtb	r5, r5
 346 00ee 1D70     		strb	r5, [r3]
 110:BLEClient.c   ****     if(CYBLE_GAP_ADDR_TYPE_PUBLIC==ScanReport->peerAddrType)
 347              		.loc 1 110 0
 348 00f0 6B1E     		sub	r3, r5, #1
 349 00f2 1E1C     		mov	r6, r3
 350 00f4 1E27     		mov	r7, #30
 351 00f6 7E43     		mul	r6, r7
 352 00f8 0193     		str	r3, [sp, #4]
 353 00fa 274B     		ldr	r3, .L44+4
 354 00fc 6168     		ldr	r1, [r4, #4]
 355 00fe 9E19     		add	r6, r3, r6
 356 0100 301C     		mov	r0, r6
 357 0102 0622     		mov	r2, #6
 358 0104 FFF7FEFF 		bl	memcpy
 359              	.LVL30:
 111:BLEClient.c   ****     {
 360              		.loc 1 111 0
 361 0108 6378     		ldrb	r3, [r4, #1]
 362 010a 002B     		cmp	r3, #0
 363 010c 00D0     		beq	.L42
 118:BLEClient.c   **** //        DeviceInfo[DeviceCount-1].DeviceList.type='R';
 364              		.loc 1 118 0
 365 010e 0123     		mov	r3, #1
 366              	.L42:
 367 0110 B371     		strb	r3, [r6, #6]
 121:BLEClient.c   ****     if(CYBLE_GAPC_CONN_UNDIRECTED_ADV==ScanReport->eventType)   
 368              		.loc 1 121 0
 369 0112 019B     		ldr	r3, [sp, #4]
 370 0114 5F43     		mul	r7, r3
 371 0116 204B     		ldr	r3, .L44+4
 372 0118 DF19     		add	r7, r3, r7
 373 011a FD71     		strb	r5, [r7, #7]
 122:BLEClient.c   ****     {
 374              		.loc 1 122 0
ARM GAS  C:\Users\Helon\AppData\Local\Temp\ccHv3m3M.s 			page 15


 375 011c 2578     		ldrb	r5, [r4]
 376 011e 002D     		cmp	r5, #0
 377 0120 36D1     		bne	.L18
 124:BLEClient.c   ****         Parser_adv_data_scan_data(ScanReport->data,ScanReport->dataLen);
 378              		.loc 1 124 0
 379 0122 237C     		ldrb	r3, [r4, #16]
 380 0124 3B72     		strb	r3, [r7, #8]
 125:BLEClient.c   ****         if(DeviceInfo[DeviceCount-1].ScanName)
 381              		.loc 1 125 0
 382 0126 217A     		ldrb	r1, [r4, #8]
 383 0128 E068     		ldr	r0, [r4, #12]
 126:BLEClient.c   ****             {
 384              		.loc 1 126 0
 385 012a 1E24     		mov	r4, #30
 386              	.LVL31:
 125:BLEClient.c   ****         if(DeviceInfo[DeviceCount-1].ScanName)
 387              		.loc 1 125 0
 388 012c FFF7FEFF 		bl	Parser_adv_data_scan_data
 389              	.LVL32:
 126:BLEClient.c   ****             {
 390              		.loc 1 126 0
 391 0130 009B     		ldr	r3, [sp]
 392 0132 1E78     		ldrb	r6, [r3]
 393 0134 184B     		ldr	r3, .L44+4
 394 0136 013E     		sub	r6, r6, #1
 395 0138 7443     		mul	r4, r6
 396 013a 1B19     		add	r3, r3, r4
 397 013c 597F     		ldrb	r1, [r3, #29]
 398 013e 1833     		add	r3, r3, #24
 399 0140 0029     		cmp	r1, #0
 400 0142 01D0     		beq	.L31
 128:BLEClient.c   ****             }
 401              		.loc 1 128 0
 402 0144 5D71     		strb	r5, [r3, #5]
 403 0146 0BE0     		b	.L32
 404              	.L31:
 132:BLEClient.c   ****                 memcpy(DeviceInfo[DeviceCount-1].DeviceName,"NULL",sizeof("NULL"));
 405              		.loc 1 132 0
 406 0148 134B     		ldr	r3, .L44+4
 407 014a 1422     		mov	r2, #20
 408 014c 1C19     		add	r4, r3, r4
 409 014e 0934     		add	r4, r4, #9
 410 0150 201C     		mov	r0, r4
 411 0152 FFF7FEFF 		bl	memset
 412              	.LVL33:
 133:BLEClient.c   ****             }
 413              		.loc 1 133 0
 414 0156 201C     		mov	r0, r4
 415 0158 1049     		ldr	r1, .L44+8
 416 015a 0522     		mov	r2, #5
 417 015c FFF7FEFF 		bl	memcpy
 418              	.LVL34:
 419              	.L32:
 148:BLEClient.c   ****             {
 420              		.loc 1 148 0
 421 0160 1E20     		mov	r0, #30
 422 0162 4643     		mul	r6, r0
ARM GAS  C:\Users\Helon\AppData\Local\Temp\ccHv3m3M.s 			page 16


 423 0164 0C4B     		ldr	r3, .L44+4
 424 0166 0E49     		ldr	r1, .L44+12
 425 0168 9819     		add	r0, r3, r6
 426 016a 0930     		add	r0, r0, #9
 427 016c 0A22     		mov	r2, #10
 428 016e FFF7FEFF 		bl	strncmp
 429              	.LVL35:
 430 0172 0028     		cmp	r0, #0
 431 0174 04D1     		bne	.L34
 150:BLEClient.c   **** //                CyDelay(2000);
 432              		.loc 1 150 0
 433 0176 FFF7FEFF 		bl	CyBle_GapcStopScan
 434              	.LVL36:
 152:BLEClient.c   **** //                 printf("%d\r\n",CyBle_GetState());                
 435              		.loc 1 152 0
 436 017a 0122     		mov	r2, #1
 437 017c 094B     		ldr	r3, .L44+16
 438 017e 1A70     		strb	r2, [r3]
 439              	.L34:
 158:BLEClient.c   ****     }
 440              		.loc 1 158 0 discriminator 5
 441 0180 FFF7FEFF 		bl	UART_SpiUartGetTxBufferSize
 442              	.LVL37:
 443 0184 084B     		ldr	r3, .L44+20
 444 0186 1B68     		ldr	r3, [r3]
 445 0188 1B04     		lsl	r3, r3, #16
 446 018a DB17     		asr	r3, r3, #31
 447 018c 8342     		cmp	r3, r0
 448 018e F7D1     		bne	.L34
 449              	.L18:
 161:BLEClient.c   **** 
 450              		.loc 1 161 0
 451              		@ sp needed
 452 0190 F7BD     		pop	{r0, r1, r2, r4, r5, r6, r7, pc}
 453              	.L45:
 454 0192 C046     		.align	2
 455              	.L44:
 456 0194 00000000 		.word	.LANCHOR0
 457 0198 00000000 		.word	DeviceInfo
 458 019c 00000000 		.word	.LC4
 459 01a0 05000000 		.word	.LC6
 460 01a4 00000000 		.word	STOP_SCAN_FLAG
 461 01a8 08022540 		.word	1076167176
 462              		.cfi_endproc
 463              	.LFE37:
 464              		.size	HandleScanDevices, .-HandleScanDevices
 465              		.section	.text.ScanDeviceInfoInit,"ax",%progbits
 466              		.align	1
 467              		.global	ScanDeviceInfoInit
 468              		.code	16
 469              		.thumb_func
 470              		.type	ScanDeviceInfoInit, %function
 471              	ScanDeviceInfoInit:
 472              	.LFB39:
 385:BLEClient.c   **** 
 386:BLEClient.c   **** 
 387:BLEClient.c   **** /******************************************************************************
ARM GAS  C:\Users\Helon\AppData\Local\Temp\ccHv3m3M.s 			page 17


 388:BLEClient.c   **** * Function Name: ScanDeviceInfoInit
 389:BLEClient.c   **** ***************************************************************************//**
 390:BLEClient.c   **** * 
 391:BLEClient.c   **** *  ÂàùÂßãÂåñÂ≠òÊîæÊâ´ÊèèÂà∞ÁöÑBLEËÆæÂ§á‰ø°ÊÅØÁ©∫Èó¥
 392:BLEClient.c   **** * 
 393:BLEClient.c   **** * \return
 394:BLEClient.c   **** *  None
 395:BLEClient.c   **** * 
 396:BLEClient.c   **** ******************************************************************************/
 397:BLEClient.c   **** void ScanDeviceInfoInit(void)
 398:BLEClient.c   **** {
 473              		.loc 1 398 0
 474              		.cfi_startproc
 475 0000 70B5     		push	{r4, r5, r6, lr}
 476              		.cfi_def_cfa_offset 16
 477              		.cfi_offset 4, -16
 478              		.cfi_offset 5, -12
 479              		.cfi_offset 6, -8
 480              		.cfi_offset 14, -4
 399:BLEClient.c   ****     uint8_t i;
 400:BLEClient.c   ****     if(DeviceCount>DeviceListCount)
 481              		.loc 1 400 0
 482 0002 104D     		ldr	r5, .L53
 483 0004 104C     		ldr	r4, .L53+4
 484 0006 2E78     		ldrb	r6, [r5]
 485 0008 0A2E     		cmp	r6, #10
 486 000a 03D8     		bhi	.L51
 487 000c 1E23     		mov	r3, #30
 488 000e 5E43     		mul	r6, r3
 489 0010 3619     		add	r6, r6, r4
 490 0012 0EE0     		b	.L48
 491              	.L51:
 492 0014 0026     		mov	r6, #0
 493              	.L47:
 494 0016 3019     		add	r0, r6, r4
 401:BLEClient.c   ****     {
 402:BLEClient.c   ****         for(i=0;i<DeviceListCount;i++)
 403:BLEClient.c   ****         {
 404:BLEClient.c   ****            memset(DeviceInfo[i].DeviceList.bdAddr,0,6);
 495              		.loc 1 404 0 discriminator 3
 496 0018 0021     		mov	r1, #0
 497 001a 0622     		mov	r2, #6
 498 001c FFF7FEFF 		bl	memset
 499              	.LVL38:
 402:BLEClient.c   ****         {
 500              		.loc 1 402 0 discriminator 3
 501 0020 9623     		mov	r3, #150
 502 0022 1E36     		add	r6, r6, #30
 503 0024 5B00     		lsl	r3, r3, #1
 504 0026 9E42     		cmp	r6, r3
 505 0028 F5D1     		bne	.L47
 506              	.L50:
 405:BLEClient.c   ****         
 406:BLEClient.c   ****         }        
 407:BLEClient.c   ****     }
 408:BLEClient.c   ****     else
 409:BLEClient.c   ****     {
ARM GAS  C:\Users\Helon\AppData\Local\Temp\ccHv3m3M.s 			page 18


 410:BLEClient.c   ****         for(i=0;i<DeviceCount;i++)
 411:BLEClient.c   ****         {
 412:BLEClient.c   ****             memset(DeviceInfo[i].DeviceList.bdAddr,0,6);
 413:BLEClient.c   ****         }
 414:BLEClient.c   ****     }
 415:BLEClient.c   ****     //ËÆ°Êï∞Êâ´ÊèèÂà∞ÁöÑËÆæÂ§áÊ∏ÖÈõ∂Ôºå‰ª•‰æøÂÜçÊ¨°Êâ´ÊèèÊó∂Êâ´ÊèèÂà∞ÁöÑËÆæÂ§á‰ø°ÊÅØË¶ÜÁõñÊóßÁöÑ‰ø°
 416:BLEClient.c   ****       DeviceCount=0;
 507              		.loc 1 416 0
 508 002a 0023     		mov	r3, #0
 417:BLEClient.c   ****       flag=0;
 418:BLEClient.c   **** 
 419:BLEClient.c   **** }
 509              		.loc 1 419 0
 510              		@ sp needed
 416:BLEClient.c   ****       flag=0;
 511              		.loc 1 416 0
 512 002c 2B70     		strb	r3, [r5]
 417:BLEClient.c   ****       flag=0;
 513              		.loc 1 417 0
 514 002e 6B70     		strb	r3, [r5, #1]
 515              		.loc 1 419 0
 516 0030 70BD     		pop	{r4, r5, r6, pc}
 517              	.L48:
 410:BLEClient.c   ****         {
 518              		.loc 1 410 0 discriminator 1
 519 0032 B442     		cmp	r4, r6
 520 0034 F9D0     		beq	.L50
 412:BLEClient.c   ****         }
 521              		.loc 1 412 0 discriminator 3
 522 0036 201C     		mov	r0, r4
 523 0038 0021     		mov	r1, #0
 524 003a 0622     		mov	r2, #6
 525 003c FFF7FEFF 		bl	memset
 526              	.LVL39:
 527 0040 1E34     		add	r4, r4, #30
 528 0042 F6E7     		b	.L48
 529              	.L54:
 530              		.align	2
 531              	.L53:
 532 0044 00000000 		.word	.LANCHOR0
 533 0048 00000000 		.word	DeviceInfo
 534              		.cfi_endproc
 535              	.LFE39:
 536              		.size	ScanDeviceInfoInit, .-ScanDeviceInfoInit
 537              		.global	flag
 538              		.global	DeviceCount
 539              		.comm	DeviceInfo,300,1
 540              		.section	.rodata.str1.1,"aMS",%progbits,1
 541              	.LC4:
 542 0000 4E554C4C 		.ascii	"NULL\000"
 542      00
 543              	.LC6:
 544 0005 424C4542 		.ascii	"BLEBLE-105\000"
 544      4C452D31 
 544      303500
 545              		.bss
 546              		.set	.LANCHOR0,. + 0
ARM GAS  C:\Users\Helon\AppData\Local\Temp\ccHv3m3M.s 			page 19


 547              		.type	DeviceCount, %object
 548              		.size	DeviceCount, 1
 549              	DeviceCount:
 550 0000 00       		.space	1
 551              		.type	flag, %object
 552              		.size	flag, 1
 553              	flag:
 554 0001 00       		.space	1
 555              		.text
 556              	.Letext0:
 557              		.file 2 "c:\\program files (x86)\\cypress\\psoc creator\\4.0\\psoc creator\\import\\gnu\\arm\\4.9.
 558              		.file 3 "c:\\program files (x86)\\cypress\\psoc creator\\4.0\\psoc creator\\import\\gnu\\arm\\4.9.
 559              		.file 4 "Generated_Source\\PSoC4/cytypes.h"
 560              		.file 5 "c:\\program files (x86)\\cypress\\psoc creator\\4.0\\psoc creator\\import\\gnu\\arm\\4.9.
 561              		.file 6 "Generated_Source\\PSoC4/BLE_Stack.h"
 562              		.file 7 "Generated_Source\\PSoC4/BLE_StackGap.h"
 563              		.file 8 "Generated_Source\\PSoC4/BLE.h"
 564              		.file 9 "BLEClient.h"
 565              		.file 10 "c:\\program files (x86)\\cypress\\psoc creator\\4.0\\psoc creator\\import\\gnu\\arm\\4.9
 566              		.file 11 "Generated_Source\\PSoC4/UART_SPI_UART.h"